; ModuleID = 'probe1.b457ac1c-cgu.0'
source_filename = "probe1.b457ac1c-cgu.0"
target datalayout = "e-m:e-p270:32:32-p271:32:32-p272:64:64-i64:64-f80:128-n8:16:32:64-S128"
target triple = "x86_64-unknown-linux-gnu"

%"core::panic::location::Location" = type { { [0 x i8]*, i64 }, i32, i32 }
%"core::result::Result<core::alloc::layout::Layout, core::alloc::layout::LayoutError>::Err" = type { %"core::alloc::layout::LayoutError" }
%"core::alloc::layout::LayoutError" = type {}
%"core::result::Result<core::ptr::non_null::NonNull<[u8]>, core::alloc::AllocError>::Err" = type { %"core::alloc::AllocError" }
%"core::alloc::AllocError" = type {}
%"[closure@core::intrinsics::copy_nonoverlapping<u8>::{closure#0}]" = type { i8**, i8**, i64* }
%"core::fmt::Formatter" = type { { i64, i64 }, { i64, i64 }, { {}*, [3 x i64]* }, i32, i32, i8, [7 x i8] }
%"core::fmt::Opaque" = type {}
%"core::fmt::Arguments" = type { { [0 x { [0 x i8]*, i64 }]*, i64 }, { i64*, i64 }, { [0 x { i8*, i64* }]*, i64 } }
%"alloc::string::String" = type { %"alloc::vec::Vec<u8>" }
%"alloc::vec::Vec<u8>" = type { { i8*, i64 }, i64 }
%"core::ptr::metadata::PtrComponents<u8>" = type { {}*, {} }
%"core::ptr::metadata::PtrRepr<u8>" = type { [1 x i64] }
%"core::ptr::metadata::PtrRepr<[u8]>" = type { [2 x i64] }
%"core::result::Result<core::ptr::non_null::NonNull<u8>, core::alloc::AllocError>::Err" = type { %"core::alloc::AllocError" }
%"alloc::alloc::Global" = type {}
%"core::option::Option<(core::ptr::non_null::NonNull<u8>, core::alloc::layout::Layout)>" = type { [2 x i64], i64 }
%"core::option::Option<(core::ptr::non_null::NonNull<u8>, core::alloc::layout::Layout)>::Some" = type { { i8*, { i64, i64 } } }
%"core::result::Result<core::convert::Infallible, core::alloc::layout::LayoutError>::Err" = type { %"core::alloc::layout::LayoutError" }
%"core::result::Result<core::convert::Infallible, core::alloc::AllocError>::Err" = type { %"core::alloc::AllocError" }
%"core::ops::control_flow::ControlFlow<core::result::Result<core::convert::Infallible, core::alloc::AllocError>, core::ptr::non_null::NonNull<u8>>::Break" = type { %"core::result::Result<core::convert::Infallible, core::alloc::AllocError>::Err" }
%"unwind::libunwind::_Unwind_Exception" = type { i64, void (i32, %"unwind::libunwind::_Unwind_Exception"*)*, [6 x i64] }
%"unwind::libunwind::_Unwind_Context" = type { [0 x i8] }

@alloc3 = private unnamed_addr constant <{}> zeroinitializer, align 8
@alloc9 = private unnamed_addr constant <{ [12 x i8] }> <{ [12 x i8] c"invalid args" }>, align 1
@alloc10 = private unnamed_addr constant <{ i8*, [8 x i8] }> <{ i8* getelementptr inbounds (<{ [12 x i8] }>, <{ [12 x i8] }>* @alloc9, i32 0, i32 0, i32 0), [8 x i8] c"\0C\00\00\00\00\00\00\00" }>, align 8
@alloc82 = private unnamed_addr constant <{ [75 x i8] }> <{ [75 x i8] c"/rustc/4b91a6ea7258a947e59c6522cd5898e7c0a6a88f/library/core/src/fmt/mod.rs" }>, align 1
@alloc83 = private unnamed_addr constant <{ i8*, [16 x i8] }> <{ i8* getelementptr inbounds (<{ [75 x i8] }>, <{ [75 x i8] }>* @alloc82, i32 0, i32 0, i32 0), [16 x i8] c"K\00\00\00\00\00\00\00\87\01\00\00\0D\00\00\00" }>, align 8
@alloc101 = private unnamed_addr constant <{ [80 x i8] }> <{ [80 x i8] c"/rustc/4b91a6ea7258a947e59c6522cd5898e7c0a6a88f/library/core/src/alloc/layout.rs" }>, align 1
@alloc102 = private unnamed_addr constant <{ i8*, [16 x i8] }> <{ i8* getelementptr inbounds (<{ [80 x i8] }>, <{ [80 x i8] }>* @alloc101, i32 0, i32 0, i32 0), [16 x i8] c"P\00\00\00\00\00\00\00\97\01\00\00\1A\00\00\00" }>, align 8
@alloc103 = private unnamed_addr constant <{ [74 x i8] }> <{ [74 x i8] c"/rustc/4b91a6ea7258a947e59c6522cd5898e7c0a6a88f/library/alloc/src/alloc.rs" }>, align 1
@alloc104 = private unnamed_addr constant <{ i8*, [16 x i8] }> <{ i8* getelementptr inbounds (<{ [74 x i8] }>, <{ [74 x i8] }>* @alloc103, i32 0, i32 0, i32 0), [16 x i8] c"J\00\00\00\00\00\00\00\AC\00\00\00\1B\00\00\00" }>, align 8
@alloc105 = private unnamed_addr constant <{ [76 x i8] }> <{ [76 x i8] c"/rustc/4b91a6ea7258a947e59c6522cd5898e7c0a6a88f/library/alloc/src/raw_vec.rs" }>, align 1
@alloc106 = private unnamed_addr constant <{ i8*, [16 x i8] }> <{ i8* getelementptr inbounds (<{ [76 x i8] }>, <{ [76 x i8] }>* @alloc105, i32 0, i32 0, i32 0), [16 x i8] c"L\00\00\00\00\00\00\00\F7\00\00\00;\00\00\00" }>, align 8
@alloc4 = private unnamed_addr constant <{ i8*, [8 x i8] }> <{ i8* bitcast (<{}>* @alloc3 to i8*), [8 x i8] zeroinitializer }>, align 8
@alloc6 = private unnamed_addr constant <{ [8 x i8] }> zeroinitializer, align 8

; <core::ptr::non_null::NonNull<T> as core::convert::From<core::ptr::unique::Unique<T>>>::from
; Function Attrs: inlinehint nonlazybind uwtable
define i8* @"_ZN119_$LT$core..ptr..non_null..NonNull$LT$T$GT$$u20$as$u20$core..convert..From$LT$core..ptr..unique..Unique$LT$T$GT$$GT$$GT$4from17h2b23729effc62aeaE"(i8* %unique) unnamed_addr #0 {
start:
; call core::ptr::unique::Unique<T>::as_ptr
  %_2 = call i8* @"_ZN4core3ptr6unique15Unique$LT$T$GT$6as_ptr17h17756bcc08056fbdE"(i8* %unique)
  br label %bb1

bb1:                                              ; preds = %start
; call core::ptr::non_null::NonNull<T>::new_unchecked
  %0 = call i8* @"_ZN4core3ptr8non_null16NonNull$LT$T$GT$13new_unchecked17h81f071df40851f76E"(i8* %_2)
  br label %bb2

bb2:                                              ; preds = %bb1
  ret i8* %0
}

; <core::ptr::unique::Unique<T> as core::convert::From<core::ptr::non_null::NonNull<T>>>::from
; Function Attrs: inlinehint nonlazybind uwtable
define i8* @"_ZN119_$LT$core..ptr..unique..Unique$LT$T$GT$$u20$as$u20$core..convert..From$LT$core..ptr..non_null..NonNull$LT$T$GT$$GT$$GT$4from17h5b42e99702ef4755E"(i8* %pointer) unnamed_addr #0 {
start:
  %0 = alloca i8*, align 8
  store i8* %pointer, i8** %0, align 8
  %1 = load i8*, i8** %0, align 8, !nonnull !2, !noundef !2
  ret i8* %1
}

; <alloc::collections::TryReserveError as core::convert::From<alloc::collections::TryReserveErrorKind>>::from
; Function Attrs: inlinehint nonlazybind uwtable
define internal { i64, i64 } @"_ZN122_$LT$alloc..collections..TryReserveError$u20$as$u20$core..convert..From$LT$alloc..collections..TryReserveErrorKind$GT$$GT$4from17h896fb433ae45eb40E"(i64 %kind.0, i64 %kind.1) unnamed_addr #0 {
start:
  %0 = alloca { i64, i64 }, align 8
  %1 = getelementptr inbounds { i64, i64 }, { i64, i64 }* %0, i32 0, i32 0
  store i64 %kind.0, i64* %1, align 8
  %2 = getelementptr inbounds { i64, i64 }, { i64, i64 }* %0, i32 0, i32 1
  store i64 %kind.1, i64* %2, align 8
  %3 = getelementptr inbounds { i64, i64 }, { i64, i64 }* %0, i32 0, i32 0
  %4 = load i64, i64* %3, align 8
  %5 = getelementptr inbounds { i64, i64 }, { i64, i64 }* %0, i32 0, i32 1
  %6 = load i64, i64* %5, align 8, !range !3, !noundef !2
  %7 = insertvalue { i64, i64 } undef, i64 %4, 0
  %8 = insertvalue { i64, i64 } %7, i64 %6, 1
  ret { i64, i64 } %8
}

; <core::result::Result<T,F> as core::ops::try_trait::FromResidual<core::result::Result<core::convert::Infallible,E>>>::from_residual
; Function Attrs: inlinehint nonlazybind uwtable
define { i64, i64 } @"_ZN153_$LT$core..result..Result$LT$T$C$F$GT$$u20$as$u20$core..ops..try_trait..FromResidual$LT$core..result..Result$LT$core..convert..Infallible$C$E$GT$$GT$$GT$13from_residual17h56fa2f0bd6fdde2dE"(%"core::panic::location::Location"* align 8 %0) unnamed_addr #0 {
start:
  %1 = alloca { i64, i64 }, align 8
; call <T as core::convert::From<T>>::from
  call void @"_ZN50_$LT$T$u20$as$u20$core..convert..From$LT$T$GT$$GT$4from17h7457603202b956b1E"()
  br label %bb1

bb1:                                              ; preds = %start
  %2 = bitcast { i64, i64 }* %1 to %"core::result::Result<core::alloc::layout::Layout, core::alloc::layout::LayoutError>::Err"*
  %3 = bitcast %"core::result::Result<core::alloc::layout::Layout, core::alloc::layout::LayoutError>::Err"* %2 to %"core::alloc::layout::LayoutError"*
  %4 = getelementptr inbounds { i64, i64 }, { i64, i64 }* %1, i32 0, i32 1
  store i64 0, i64* %4, align 8
  %5 = getelementptr inbounds { i64, i64 }, { i64, i64 }* %1, i32 0, i32 0
  %6 = load i64, i64* %5, align 8
  %7 = getelementptr inbounds { i64, i64 }, { i64, i64 }* %1, i32 0, i32 1
  %8 = load i64, i64* %7, align 8, !range !3, !noundef !2
  %9 = insertvalue { i64, i64 } undef, i64 %6, 0
  %10 = insertvalue { i64, i64 } %9, i64 %8, 1
  ret { i64, i64 } %10
}

; <core::result::Result<T,F> as core::ops::try_trait::FromResidual<core::result::Result<core::convert::Infallible,E>>>::from_residual
; Function Attrs: inlinehint nonlazybind uwtable
define { i8*, i64 } @"_ZN153_$LT$core..result..Result$LT$T$C$F$GT$$u20$as$u20$core..ops..try_trait..FromResidual$LT$core..result..Result$LT$core..convert..Infallible$C$E$GT$$GT$$GT$13from_residual17ha05dfab42a7bf4c3E"(%"core::panic::location::Location"* align 8 %0) unnamed_addr #0 {
start:
  %1 = alloca { i8*, i64 }, align 8
; call <T as core::convert::From<T>>::from
  call void @"_ZN50_$LT$T$u20$as$u20$core..convert..From$LT$T$GT$$GT$4from17hdca68d510ebdc102E"()
  br label %bb1

bb1:                                              ; preds = %start
  %2 = bitcast { i8*, i64 }* %1 to %"core::result::Result<core::ptr::non_null::NonNull<[u8]>, core::alloc::AllocError>::Err"*
  %3 = bitcast %"core::result::Result<core::ptr::non_null::NonNull<[u8]>, core::alloc::AllocError>::Err"* %2 to %"core::alloc::AllocError"*
  %4 = bitcast { i8*, i64 }* %1 to {}**
  store {}* null, {}** %4, align 8
  %5 = getelementptr inbounds { i8*, i64 }, { i8*, i64 }* %1, i32 0, i32 0
  %6 = load i8*, i8** %5, align 8
  %7 = getelementptr inbounds { i8*, i64 }, { i8*, i64 }* %1, i32 0, i32 1
  %8 = load i64, i64* %7, align 8
  %9 = insertvalue { i8*, i64 } undef, i8* %6, 0
  %10 = insertvalue { i8*, i64 } %9, i64 %8, 1
  ret { i8*, i64 } %10
}

; core::intrinsics::copy_nonoverlapping
; Function Attrs: inlinehint nonlazybind uwtable
define void @_ZN4core10intrinsics19copy_nonoverlapping17ha16c893393db4126E(i8* %src, i8* %dst, i64 %count) unnamed_addr #0 {
start:
  %runtime = alloca %"[closure@core::intrinsics::copy_nonoverlapping<u8>::{closure#0}]", align 8
  %0 = mul i64 %count, 1
  call void @llvm.memcpy.p0i8.p0i8.i64(i8* align 1 %dst, i8* align 1 %src, i64 %0, i1 false)
  ret void
}

; core::fmt::ArgumentV1::new_lower_exp
; Function Attrs: inlinehint nonlazybind uwtable
define { i8*, i64* } @_ZN4core3fmt10ArgumentV113new_lower_exp17hea57e69853a6744aE(i64* align 8 %x) unnamed_addr #0 {
start:
; call core::fmt::ArgumentV1::new
  %0 = call { i8*, i64* } @_ZN4core3fmt10ArgumentV13new17he8b511acd544a942E(i64* align 8 %x, i1 (i64*, %"core::fmt::Formatter"*)* @"_ZN4core3fmt3num3imp55_$LT$impl$u20$core..fmt..LowerExp$u20$for$u20$isize$GT$3fmt17h0e21502f1d8f0b72E")
  %1 = extractvalue { i8*, i64* } %0, 0
  %2 = extractvalue { i8*, i64* } %0, 1
  br label %bb1

bb1:                                              ; preds = %start
  %3 = insertvalue { i8*, i64* } undef, i8* %1, 0
  %4 = insertvalue { i8*, i64* } %3, i64* %2, 1
  ret { i8*, i64* } %4
}

; core::fmt::ArgumentV1::new
; Function Attrs: inlinehint nonlazybind uwtable
define { i8*, i64* } @_ZN4core3fmt10ArgumentV13new17he8b511acd544a942E(i64* align 8 %x, i1 (i64*, %"core::fmt::Formatter"*)* %f) unnamed_addr #0 {
start:
  %0 = alloca %"core::fmt::Opaque"*, align 8
  %1 = alloca i1 (%"core::fmt::Opaque"*, %"core::fmt::Formatter"*)*, align 8
  %2 = alloca { i8*, i64* }, align 8
  %3 = bitcast i1 (i64*, %"core::fmt::Formatter"*)* %f to i1 (%"core::fmt::Opaque"*, %"core::fmt::Formatter"*)*
  store i1 (%"core::fmt::Opaque"*, %"core::fmt::Formatter"*)* %3, i1 (%"core::fmt::Opaque"*, %"core::fmt::Formatter"*)** %1, align 8
  %_3 = load i1 (%"core::fmt::Opaque"*, %"core::fmt::Formatter"*)*, i1 (%"core::fmt::Opaque"*, %"core::fmt::Formatter"*)** %1, align 8, !nonnull !2, !noundef !2
  br label %bb1

bb1:                                              ; preds = %start
  %4 = bitcast i64* %x to %"core::fmt::Opaque"*
  store %"core::fmt::Opaque"* %4, %"core::fmt::Opaque"** %0, align 8
  %_5 = load %"core::fmt::Opaque"*, %"core::fmt::Opaque"** %0, align 8, !nonnull !2, !align !4, !noundef !2
  br label %bb2

bb2:                                              ; preds = %bb1
  %5 = bitcast { i8*, i64* }* %2 to %"core::fmt::Opaque"**
  store %"core::fmt::Opaque"* %_5, %"core::fmt::Opaque"** %5, align 8
  %6 = getelementptr inbounds { i8*, i64* }, { i8*, i64* }* %2, i32 0, i32 1
  %7 = bitcast i64** %6 to i1 (%"core::fmt::Opaque"*, %"core::fmt::Formatter"*)**
  store i1 (%"core::fmt::Opaque"*, %"core::fmt::Formatter"*)* %_3, i1 (%"core::fmt::Opaque"*, %"core::fmt::Formatter"*)** %7, align 8
  %8 = getelementptr inbounds { i8*, i64* }, { i8*, i64* }* %2, i32 0, i32 0
  %9 = load i8*, i8** %8, align 8, !nonnull !2, !align !4, !noundef !2
  %10 = getelementptr inbounds { i8*, i64* }, { i8*, i64* }* %2, i32 0, i32 1
  %11 = load i64*, i64** %10, align 8, !nonnull !2, !noundef !2
  %12 = insertvalue { i8*, i64* } undef, i8* %9, 0
  %13 = insertvalue { i8*, i64* } %12, i64* %11, 1
  ret { i8*, i64* } %13
}

; core::fmt::Arguments::as_str
; Function Attrs: inlinehint nonlazybind uwtable
define internal { i8*, i64 } @_ZN4core3fmt9Arguments6as_str17h7b6e0590c41dd1b7E(%"core::fmt::Arguments"* align 8 %self) unnamed_addr #0 {
start:
  %_2 = alloca { { [0 x { [0 x i8]*, i64 }]*, i64 }, { [0 x { i8*, i64* }]*, i64 } }, align 8
  %0 = alloca { i8*, i64 }, align 8
  %1 = bitcast %"core::fmt::Arguments"* %self to { [0 x { [0 x i8]*, i64 }]*, i64 }*
  %2 = getelementptr inbounds { [0 x { [0 x i8]*, i64 }]*, i64 }, { [0 x { [0 x i8]*, i64 }]*, i64 }* %1, i32 0, i32 0
  %_3.0 = load [0 x { [0 x i8]*, i64 }]*, [0 x { [0 x i8]*, i64 }]** %2, align 8, !nonnull !2, !align !5, !noundef !2
  %3 = getelementptr inbounds { [0 x { [0 x i8]*, i64 }]*, i64 }, { [0 x { [0 x i8]*, i64 }]*, i64 }* %1, i32 0, i32 1
  %_3.1 = load i64, i64* %3, align 8
  %4 = getelementptr inbounds %"core::fmt::Arguments", %"core::fmt::Arguments"* %self, i32 0, i32 2
  %5 = getelementptr inbounds { [0 x { i8*, i64* }]*, i64 }, { [0 x { i8*, i64* }]*, i64 }* %4, i32 0, i32 0
  %_4.0 = load [0 x { i8*, i64* }]*, [0 x { i8*, i64* }]** %5, align 8, !nonnull !2, !align !5, !noundef !2
  %6 = getelementptr inbounds { [0 x { i8*, i64* }]*, i64 }, { [0 x { i8*, i64* }]*, i64 }* %4, i32 0, i32 1
  %_4.1 = load i64, i64* %6, align 8
  %7 = bitcast { { [0 x { [0 x i8]*, i64 }]*, i64 }, { [0 x { i8*, i64* }]*, i64 } }* %_2 to { [0 x { [0 x i8]*, i64 }]*, i64 }*
  %8 = getelementptr inbounds { [0 x { [0 x i8]*, i64 }]*, i64 }, { [0 x { [0 x i8]*, i64 }]*, i64 }* %7, i32 0, i32 0
  store [0 x { [0 x i8]*, i64 }]* %_3.0, [0 x { [0 x i8]*, i64 }]** %8, align 8
  %9 = getelementptr inbounds { [0 x { [0 x i8]*, i64 }]*, i64 }, { [0 x { [0 x i8]*, i64 }]*, i64 }* %7, i32 0, i32 1
  store i64 %_3.1, i64* %9, align 8
  %10 = getelementptr inbounds { { [0 x { [0 x i8]*, i64 }]*, i64 }, { [0 x { i8*, i64* }]*, i64 } }, { { [0 x { [0 x i8]*, i64 }]*, i64 }, { [0 x { i8*, i64* }]*, i64 } }* %_2, i32 0, i32 1
  %11 = getelementptr inbounds { [0 x { i8*, i64* }]*, i64 }, { [0 x { i8*, i64* }]*, i64 }* %10, i32 0, i32 0
  store [0 x { i8*, i64* }]* %_4.0, [0 x { i8*, i64* }]** %11, align 8
  %12 = getelementptr inbounds { [0 x { i8*, i64* }]*, i64 }, { [0 x { i8*, i64* }]*, i64 }* %10, i32 0, i32 1
  store i64 %_4.1, i64* %12, align 8
  %13 = bitcast { { [0 x { [0 x i8]*, i64 }]*, i64 }, { [0 x { i8*, i64* }]*, i64 } }* %_2 to { [0 x { [0 x i8]*, i64 }]*, i64 }*
  %14 = getelementptr inbounds { [0 x { [0 x i8]*, i64 }]*, i64 }, { [0 x { [0 x i8]*, i64 }]*, i64 }* %13, i32 0, i32 0
  %_21.0 = load [0 x { [0 x i8]*, i64 }]*, [0 x { [0 x i8]*, i64 }]** %14, align 8, !nonnull !2, !align !5, !noundef !2
  %15 = getelementptr inbounds { [0 x { [0 x i8]*, i64 }]*, i64 }, { [0 x { [0 x i8]*, i64 }]*, i64 }* %13, i32 0, i32 1
  %_21.1 = load i64, i64* %15, align 8
  %_16 = icmp eq i64 %_21.1, 0
  br i1 %_16, label %bb1, label %bb3

bb3:                                              ; preds = %start
  %16 = bitcast { { [0 x { [0 x i8]*, i64 }]*, i64 }, { [0 x { i8*, i64* }]*, i64 } }* %_2 to { [0 x { [0 x i8]*, i64 }]*, i64 }*
  %17 = getelementptr inbounds { [0 x { [0 x i8]*, i64 }]*, i64 }, { [0 x { [0 x i8]*, i64 }]*, i64 }* %16, i32 0, i32 0
  %_23.0 = load [0 x { [0 x i8]*, i64 }]*, [0 x { [0 x i8]*, i64 }]** %17, align 8, !nonnull !2, !align !5, !noundef !2
  %18 = getelementptr inbounds { [0 x { [0 x i8]*, i64 }]*, i64 }, { [0 x { [0 x i8]*, i64 }]*, i64 }* %16, i32 0, i32 1
  %_23.1 = load i64, i64* %18, align 8
  %_13 = icmp eq i64 %_23.1, 1
  br i1 %_13, label %bb4, label %bb2

bb1:                                              ; preds = %start
  %19 = getelementptr inbounds { { [0 x { [0 x i8]*, i64 }]*, i64 }, { [0 x { i8*, i64* }]*, i64 } }, { { [0 x { [0 x i8]*, i64 }]*, i64 }, { [0 x { i8*, i64* }]*, i64 } }* %_2, i32 0, i32 1
  %20 = getelementptr inbounds { [0 x { i8*, i64* }]*, i64 }, { [0 x { i8*, i64* }]*, i64 }* %19, i32 0, i32 0
  %_22.0 = load [0 x { i8*, i64* }]*, [0 x { i8*, i64* }]** %20, align 8, !nonnull !2, !align !5, !noundef !2
  %21 = getelementptr inbounds { [0 x { i8*, i64* }]*, i64 }, { [0 x { i8*, i64* }]*, i64 }* %19, i32 0, i32 1
  %_22.1 = load i64, i64* %21, align 8
  %_7 = icmp eq i64 %_22.1, 0
  br i1 %_7, label %bb5, label %bb2

bb2:                                              ; preds = %bb4, %bb3, %bb1
  %22 = bitcast { i8*, i64 }* %0 to {}**
  store {}* null, {}** %22, align 8
  br label %bb7

bb5:                                              ; preds = %bb1
  %23 = bitcast { i8*, i64 }* %0 to { [0 x i8]*, i64 }*
  %24 = getelementptr inbounds { [0 x i8]*, i64 }, { [0 x i8]*, i64 }* %23, i32 0, i32 0
  store [0 x i8]* bitcast (<{}>* @alloc3 to [0 x i8]*), [0 x i8]** %24, align 8
  %25 = getelementptr inbounds { [0 x i8]*, i64 }, { [0 x i8]*, i64 }* %23, i32 0, i32 1
  store i64 0, i64* %25, align 8
  br label %bb7

bb7:                                              ; preds = %bb2, %bb6, %bb5
  %26 = getelementptr inbounds { i8*, i64 }, { i8*, i64 }* %0, i32 0, i32 0
  %27 = load i8*, i8** %26, align 8, !align !4
  %28 = getelementptr inbounds { i8*, i64 }, { i8*, i64 }* %0, i32 0, i32 1
  %29 = load i64, i64* %28, align 8
  %30 = insertvalue { i8*, i64 } undef, i8* %27, 0
  %31 = insertvalue { i8*, i64 } %30, i64 %29, 1
  ret { i8*, i64 } %31

bb4:                                              ; preds = %bb3
  %32 = getelementptr inbounds { { [0 x { [0 x i8]*, i64 }]*, i64 }, { [0 x { i8*, i64* }]*, i64 } }, { { [0 x { [0 x i8]*, i64 }]*, i64 }, { [0 x { i8*, i64* }]*, i64 } }* %_2, i32 0, i32 1
  %33 = getelementptr inbounds { [0 x { i8*, i64* }]*, i64 }, { [0 x { i8*, i64* }]*, i64 }* %32, i32 0, i32 0
  %_24.0 = load [0 x { i8*, i64* }]*, [0 x { i8*, i64* }]** %33, align 8, !nonnull !2, !align !5, !noundef !2
  %34 = getelementptr inbounds { [0 x { i8*, i64* }]*, i64 }, { [0 x { i8*, i64* }]*, i64 }* %32, i32 0, i32 1
  %_24.1 = load i64, i64* %34, align 8
  %_10 = icmp eq i64 %_24.1, 0
  br i1 %_10, label %bb6, label %bb2

bb6:                                              ; preds = %bb4
  %35 = bitcast { { [0 x { [0 x i8]*, i64 }]*, i64 }, { [0 x { i8*, i64* }]*, i64 } }* %_2 to { [0 x { [0 x i8]*, i64 }]*, i64 }*
  %36 = getelementptr inbounds { [0 x { [0 x i8]*, i64 }]*, i64 }, { [0 x { [0 x i8]*, i64 }]*, i64 }* %35, i32 0, i32 0
  %_25.0 = load [0 x { [0 x i8]*, i64 }]*, [0 x { [0 x i8]*, i64 }]** %36, align 8, !nonnull !2, !align !5, !noundef !2
  %37 = getelementptr inbounds { [0 x { [0 x i8]*, i64 }]*, i64 }, { [0 x { [0 x i8]*, i64 }]*, i64 }* %35, i32 0, i32 1
  %_25.1 = load i64, i64* %37, align 8
  %s = getelementptr inbounds [0 x { [0 x i8]*, i64 }], [0 x { [0 x i8]*, i64 }]* %_25.0, i64 0, i64 0
  %38 = getelementptr inbounds { [0 x i8]*, i64 }, { [0 x i8]*, i64 }* %s, i32 0, i32 0
  %_26.0 = load [0 x i8]*, [0 x i8]** %38, align 8, !nonnull !2, !align !4, !noundef !2
  %39 = getelementptr inbounds { [0 x i8]*, i64 }, { [0 x i8]*, i64 }* %s, i32 0, i32 1
  %_26.1 = load i64, i64* %39, align 8
  %40 = bitcast { i8*, i64 }* %0 to { [0 x i8]*, i64 }*
  %41 = getelementptr inbounds { [0 x i8]*, i64 }, { [0 x i8]*, i64 }* %40, i32 0, i32 0
  store [0 x i8]* %_26.0, [0 x i8]** %41, align 8
  %42 = getelementptr inbounds { [0 x i8]*, i64 }, { [0 x i8]*, i64 }* %40, i32 0, i32 1
  store i64 %_26.1, i64* %42, align 8
  br label %bb7
}

; core::fmt::Arguments::new_v1
; Function Attrs: inlinehint nonlazybind uwtable
define internal void @_ZN4core3fmt9Arguments6new_v117hd1601d1fda8bde9eE(%"core::fmt::Arguments"* sret(%"core::fmt::Arguments") %0, [0 x { [0 x i8]*, i64 }]* align 8 %pieces.0, i64 %pieces.1, [0 x { i8*, i64* }]* align 8 %args.0, i64 %args.1) unnamed_addr #0 {
start:
  %_24 = alloca { i64*, i64 }, align 8
  %_16 = alloca %"core::fmt::Arguments", align 8
  %_3 = alloca i8, align 1
  %_4 = icmp ult i64 %pieces.1, %args.1
  br i1 %_4, label %bb1, label %bb2

bb2:                                              ; preds = %start
  %_12 = add i64 %args.1, 1
  %_9 = icmp ugt i64 %pieces.1, %_12
  %1 = zext i1 %_9 to i8
  store i8 %1, i8* %_3, align 1
  br label %bb3

bb1:                                              ; preds = %start
  store i8 1, i8* %_3, align 1
  br label %bb3

bb3:                                              ; preds = %bb2, %bb1
  %2 = load i8, i8* %_3, align 1, !range !6, !noundef !2
  %3 = trunc i8 %2 to i1
  br i1 %3, label %bb4, label %bb6

bb6:                                              ; preds = %bb3
  %4 = bitcast { i64*, i64 }* %_24 to {}**
  store {}* null, {}** %4, align 8
  %5 = bitcast %"core::fmt::Arguments"* %0 to { [0 x { [0 x i8]*, i64 }]*, i64 }*
  %6 = getelementptr inbounds { [0 x { [0 x i8]*, i64 }]*, i64 }, { [0 x { [0 x i8]*, i64 }]*, i64 }* %5, i32 0, i32 0
  store [0 x { [0 x i8]*, i64 }]* %pieces.0, [0 x { [0 x i8]*, i64 }]** %6, align 8
  %7 = getelementptr inbounds { [0 x { [0 x i8]*, i64 }]*, i64 }, { [0 x { [0 x i8]*, i64 }]*, i64 }* %5, i32 0, i32 1
  store i64 %pieces.1, i64* %7, align 8
  %8 = getelementptr inbounds %"core::fmt::Arguments", %"core::fmt::Arguments"* %0, i32 0, i32 1
  %9 = getelementptr inbounds { i64*, i64 }, { i64*, i64 }* %_24, i32 0, i32 0
  %10 = load i64*, i64** %9, align 8, !align !5
  %11 = getelementptr inbounds { i64*, i64 }, { i64*, i64 }* %_24, i32 0, i32 1
  %12 = load i64, i64* %11, align 8
  %13 = getelementptr inbounds { i64*, i64 }, { i64*, i64 }* %8, i32 0, i32 0
  store i64* %10, i64** %13, align 8
  %14 = getelementptr inbounds { i64*, i64 }, { i64*, i64 }* %8, i32 0, i32 1
  store i64 %12, i64* %14, align 8
  %15 = getelementptr inbounds %"core::fmt::Arguments", %"core::fmt::Arguments"* %0, i32 0, i32 2
  %16 = getelementptr inbounds { [0 x { i8*, i64* }]*, i64 }, { [0 x { i8*, i64* }]*, i64 }* %15, i32 0, i32 0
  store [0 x { i8*, i64* }]* %args.0, [0 x { i8*, i64* }]** %16, align 8
  %17 = getelementptr inbounds { [0 x { i8*, i64* }]*, i64 }, { [0 x { i8*, i64* }]*, i64 }* %15, i32 0, i32 1
  store i64 %args.1, i64* %17, align 8
  ret void

bb4:                                              ; preds = %bb3
; call core::fmt::Arguments::new_v1
  call void @_ZN4core3fmt9Arguments6new_v117hd1601d1fda8bde9eE(%"core::fmt::Arguments"* sret(%"core::fmt::Arguments") %_16, [0 x { [0 x i8]*, i64 }]* align 8 bitcast (<{ i8*, [8 x i8] }>* @alloc10 to [0 x { [0 x i8]*, i64 }]*), i64 1, [0 x { i8*, i64* }]* align 8 bitcast (<{}>* @alloc3 to [0 x { i8*, i64* }]*), i64 0)
  br label %bb5

bb5:                                              ; preds = %bb4
; call core::panicking::panic_fmt
  call void @_ZN4core9panicking9panic_fmt17h1de71520faaa17d3E(%"core::fmt::Arguments"* %_16, %"core::panic::location::Location"* align 8 bitcast (<{ i8*, [16 x i8] }>* @alloc83 to %"core::panic::location::Location"*)) #12
  unreachable
}

; core::mem::valid_align::ValidAlign::as_nonzero
; Function Attrs: inlinehint nonlazybind uwtable
define internal i64 @_ZN4core3mem11valid_align10ValidAlign10as_nonzero17h8c69101bf27ef92eE(i64 %self) unnamed_addr #0 {
start:
  %0 = icmp uge i64 %self, 1
  call void @llvm.assume(i1 %0)
  %1 = icmp ule i64 %self, -9223372036854775808
  call void @llvm.assume(i1 %1)
; call core::num::nonzero::NonZeroUsize::new_unchecked
  %2 = call i64 @_ZN4core3num7nonzero12NonZeroUsize13new_unchecked17hbc66c58052c86171E(i64 %self), !range !7
  br label %bb1

bb1:                                              ; preds = %start
  ret i64 %2
}

; core::mem::valid_align::ValidAlign::new_unchecked
; Function Attrs: inlinehint nonlazybind uwtable
define internal i64 @_ZN4core3mem11valid_align10ValidAlign13new_unchecked17hb6ff39fcfd1489e8E(i64 %align) unnamed_addr #0 {
start:
  %0 = alloca i64, align 8
  store i64 %align, i64* %0, align 8
  %1 = load i64, i64* %0, align 8, !range !8, !noundef !2
  br label %bb1

bb1:                                              ; preds = %start
  ret i64 %1
}

; core::num::<impl usize>::checked_mul
; Function Attrs: inlinehint nonlazybind uwtable
define internal { i64, i64 } @"_ZN4core3num23_$LT$impl$u20$usize$GT$11checked_mul17hd9557308306146adE"(i64 %self, i64 %rhs) unnamed_addr #0 {
start:
  %0 = alloca { i64, i8 }, align 8
  %1 = alloca { i64, i8 }, align 8
  %2 = alloca i8, align 1
  %3 = alloca { i64, i64 }, align 8
  %4 = call { i64, i1 } @llvm.umul.with.overflow.i64(i64 %self, i64 %rhs)
  %5 = extractvalue { i64, i1 } %4, 0
  %6 = extractvalue { i64, i1 } %4, 1
  %7 = zext i1 %6 to i8
  %8 = bitcast { i64, i8 }* %0 to i64*
  store i64 %5, i64* %8, align 8
  %9 = getelementptr inbounds { i64, i8 }, { i64, i8 }* %0, i32 0, i32 1
  store i8 %7, i8* %9, align 8
  %10 = getelementptr inbounds { i64, i8 }, { i64, i8 }* %0, i32 0, i32 0
  %_5.0.i = load i64, i64* %10, align 8
  %11 = getelementptr inbounds { i64, i8 }, { i64, i8 }* %0, i32 0, i32 1
  %12 = load i8, i8* %11, align 8, !range !6, !noundef !2
  %_5.1.i = trunc i8 %12 to i1
  %13 = bitcast { i64, i8 }* %1 to i64*
  store i64 %_5.0.i, i64* %13, align 8
  %14 = getelementptr inbounds { i64, i8 }, { i64, i8 }* %1, i32 0, i32 1
  %15 = zext i1 %_5.1.i to i8
  store i8 %15, i8* %14, align 8
  %16 = getelementptr inbounds { i64, i8 }, { i64, i8 }* %1, i32 0, i32 0
  %17 = load i64, i64* %16, align 8
  %18 = getelementptr inbounds { i64, i8 }, { i64, i8 }* %1, i32 0, i32 1
  %19 = load i8, i8* %18, align 8, !range !6, !noundef !2
  %20 = trunc i8 %19 to i1
  %21 = zext i1 %20 to i8
  %22 = insertvalue { i64, i8 } undef, i64 %17, 0
  %23 = insertvalue { i64, i8 } %22, i8 %21, 1
  %_5.0 = extractvalue { i64, i8 } %23, 0
  %24 = extractvalue { i64, i8 } %23, 1
  %_5.1 = trunc i8 %24 to i1
  br label %bb1

bb1:                                              ; preds = %start
  %25 = call i1 @llvm.expect.i1(i1 %_5.1, i1 false)
  %26 = zext i1 %25 to i8
  store i8 %26, i8* %2, align 1
  %27 = load i8, i8* %2, align 1, !range !6, !noundef !2
  %_8 = trunc i8 %27 to i1
  br label %bb2

bb2:                                              ; preds = %bb1
  br i1 %_8, label %bb3, label %bb4

bb4:                                              ; preds = %bb2
  %28 = getelementptr inbounds { i64, i64 }, { i64, i64 }* %3, i32 0, i32 1
  store i64 %_5.0, i64* %28, align 8
  %29 = bitcast { i64, i64 }* %3 to i64*
  store i64 1, i64* %29, align 8
  br label %bb5

bb3:                                              ; preds = %bb2
  %30 = bitcast { i64, i64 }* %3 to i64*
  store i64 0, i64* %30, align 8
  br label %bb5

bb5:                                              ; preds = %bb4, %bb3
  %31 = getelementptr inbounds { i64, i64 }, { i64, i64 }* %3, i32 0, i32 0
  %32 = load i64, i64* %31, align 8, !range !9, !noundef !2
  %33 = getelementptr inbounds { i64, i64 }, { i64, i64 }* %3, i32 0, i32 1
  %34 = load i64, i64* %33, align 8
  %35 = insertvalue { i64, i64 } undef, i64 %32, 0
  %36 = insertvalue { i64, i64 } %35, i64 %34, 1
  ret { i64, i64 } %36
}

; core::num::nonzero::NonZeroUsize::new_unchecked
; Function Attrs: inlinehint nonlazybind uwtable
define internal i64 @_ZN4core3num7nonzero12NonZeroUsize13new_unchecked17hbc66c58052c86171E(i64 %n) unnamed_addr #0 {
start:
  %0 = alloca i64, align 8
  store i64 %n, i64* %0, align 8
  %1 = load i64, i64* %0, align 8, !range !7, !noundef !2
  ret i64 %1
}

; core::num::nonzero::NonZeroUsize::get
; Function Attrs: inlinehint nonlazybind uwtable
define internal i64 @_ZN4core3num7nonzero12NonZeroUsize3get17h52fd62f740a10c27E(i64 %self) unnamed_addr #0 {
start:
  ret i64 %self
}

; core::ops::function::FnOnce::call_once
; Function Attrs: inlinehint nonlazybind uwtable
define internal void @_ZN4core3ops8function6FnOnce9call_once17h2dacd2ba89ba2054E(%"alloc::string::String"* sret(%"alloc::string::String") %0, [0 x i8]* align 1 %1, i64 %2) unnamed_addr #0 {
start:
  %_2 = alloca { i8*, i64 }, align 8
  %3 = bitcast { i8*, i64 }* %_2 to { [0 x i8]*, i64 }*
  %4 = getelementptr inbounds { [0 x i8]*, i64 }, { [0 x i8]*, i64 }* %3, i32 0, i32 0
  store [0 x i8]* %1, [0 x i8]** %4, align 8
  %5 = getelementptr inbounds { [0 x i8]*, i64 }, { [0 x i8]*, i64 }* %3, i32 0, i32 1
  store i64 %2, i64* %5, align 8
  %6 = bitcast { i8*, i64 }* %_2 to { [0 x i8]*, i64 }*
  %7 = getelementptr inbounds { [0 x i8]*, i64 }, { [0 x i8]*, i64 }* %6, i32 0, i32 0
  %8 = load [0 x i8]*, [0 x i8]** %7, align 8, !nonnull !2, !align !4, !noundef !2
  %9 = getelementptr inbounds { [0 x i8]*, i64 }, { [0 x i8]*, i64 }* %6, i32 0, i32 1
  %10 = load i64, i64* %9, align 8
; call alloc::str::<impl alloc::borrow::ToOwned for str>::to_owned
  call void @"_ZN5alloc3str56_$LT$impl$u20$alloc..borrow..ToOwned$u20$for$u20$str$GT$8to_owned17h3f11a66784b7d162E"(%"alloc::string::String"* sret(%"alloc::string::String") %0, [0 x i8]* align 1 %8, i64 %10)
  br label %bb1

bb1:                                              ; preds = %start
  ret void
}

; core::ptr::slice_from_raw_parts_mut
; Function Attrs: inlinehint nonlazybind uwtable
define { [0 x i8]*, i64 } @_ZN4core3ptr24slice_from_raw_parts_mut17h0baf4609085c1abeE(i8* %data, i64 %len) unnamed_addr #0 {
start:
  %0 = bitcast i8* %data to {}*
  br label %bb1

bb1:                                              ; preds = %start
; call core::ptr::metadata::from_raw_parts_mut
  %1 = call { [0 x i8]*, i64 } @_ZN4core3ptr8metadata18from_raw_parts_mut17hec0ff4fb7c610b99E({}* %0, i64 %len)
  %2 = extractvalue { [0 x i8]*, i64 } %1, 0
  %3 = extractvalue { [0 x i8]*, i64 } %1, 1
  br label %bb2

bb2:                                              ; preds = %bb1
  %4 = insertvalue { [0 x i8]*, i64 } undef, [0 x i8]* %2, 0
  %5 = insertvalue { [0 x i8]*, i64 } %4, i64 %3, 1
  ret { [0 x i8]*, i64 } %5
}

; core::ptr::drop_in_place<alloc::string::String>
; Function Attrs: nonlazybind uwtable
define void @"_ZN4core3ptr42drop_in_place$LT$alloc..string..String$GT$17hd692907dc64ba825E"(%"alloc::string::String"* %_1) unnamed_addr #1 {
start:
  %0 = bitcast %"alloc::string::String"* %_1 to %"alloc::vec::Vec<u8>"*
; call core::ptr::drop_in_place<alloc::vec::Vec<u8>>
  call void @"_ZN4core3ptr46drop_in_place$LT$alloc..vec..Vec$LT$u8$GT$$GT$17ha6112de1cd887819E"(%"alloc::vec::Vec<u8>"* %0)
  br label %bb1

bb1:                                              ; preds = %start
  ret void
}

; core::ptr::drop_in_place<alloc::vec::Vec<u8>>
; Function Attrs: nonlazybind uwtable
define void @"_ZN4core3ptr46drop_in_place$LT$alloc..vec..Vec$LT$u8$GT$$GT$17ha6112de1cd887819E"(%"alloc::vec::Vec<u8>"* %_1) unnamed_addr #1 personality i32 (i32, i32, i64, %"unwind::libunwind::_Unwind_Exception"*, %"unwind::libunwind::_Unwind_Context"*)* @rust_eh_personality {
start:
  %0 = alloca { i8*, i32 }, align 8
; invoke <alloc::vec::Vec<T,A> as core::ops::drop::Drop>::drop
  invoke void @"_ZN70_$LT$alloc..vec..Vec$LT$T$C$A$GT$$u20$as$u20$core..ops..drop..Drop$GT$4drop17h2a71f8e896f66c2aE"(%"alloc::vec::Vec<u8>"* align 8 %_1)
          to label %bb4 unwind label %cleanup

bb3:                                              ; preds = %cleanup
  %1 = bitcast %"alloc::vec::Vec<u8>"* %_1 to { i8*, i64 }*
; invoke core::ptr::drop_in_place<alloc::raw_vec::RawVec<u8>>
  invoke void @"_ZN4core3ptr53drop_in_place$LT$alloc..raw_vec..RawVec$LT$u8$GT$$GT$17hc5b7d636195a8c4eE"({ i8*, i64 }* %1) #13
          to label %bb1 unwind label %abort

cleanup:                                          ; preds = %start
  %2 = landingpad { i8*, i32 }
          cleanup
  %3 = extractvalue { i8*, i32 } %2, 0
  %4 = extractvalue { i8*, i32 } %2, 1
  %5 = getelementptr inbounds { i8*, i32 }, { i8*, i32 }* %0, i32 0, i32 0
  store i8* %3, i8** %5, align 8
  %6 = getelementptr inbounds { i8*, i32 }, { i8*, i32 }* %0, i32 0, i32 1
  store i32 %4, i32* %6, align 8
  br label %bb3

bb4:                                              ; preds = %start
  %7 = bitcast %"alloc::vec::Vec<u8>"* %_1 to { i8*, i64 }*
; call core::ptr::drop_in_place<alloc::raw_vec::RawVec<u8>>
  call void @"_ZN4core3ptr53drop_in_place$LT$alloc..raw_vec..RawVec$LT$u8$GT$$GT$17hc5b7d636195a8c4eE"({ i8*, i64 }* %7)
  br label %bb2

abort:                                            ; preds = %bb3
  %8 = landingpad { i8*, i32 }
          cleanup
; call core::panicking::panic_no_unwind
  call void @_ZN4core9panicking15panic_no_unwind17hd9b8f600c78bc0e5E() #14
  unreachable

bb1:                                              ; preds = %bb3
  %9 = bitcast { i8*, i32 }* %0 to i8**
  %10 = load i8*, i8** %9, align 8
  %11 = getelementptr inbounds { i8*, i32 }, { i8*, i32 }* %0, i32 0, i32 1
  %12 = load i32, i32* %11, align 8
  %13 = insertvalue { i8*, i32 } undef, i8* %10, 0
  %14 = insertvalue { i8*, i32 } %13, i32 %12, 1
  resume { i8*, i32 } %14

bb2:                                              ; preds = %bb4
  ret void
}

; core::ptr::drop_in_place<alloc::raw_vec::RawVec<u8>>
; Function Attrs: nonlazybind uwtable
define void @"_ZN4core3ptr53drop_in_place$LT$alloc..raw_vec..RawVec$LT$u8$GT$$GT$17hc5b7d636195a8c4eE"({ i8*, i64 }* %_1) unnamed_addr #1 {
start:
; call <alloc::raw_vec::RawVec<T,A> as core::ops::drop::Drop>::drop
  call void @"_ZN77_$LT$alloc..raw_vec..RawVec$LT$T$C$A$GT$$u20$as$u20$core..ops..drop..Drop$GT$4drop17h14ac46611a604b9dE"({ i8*, i64 }* align 8 %_1)
  br label %bb1

bb1:                                              ; preds = %start
  ret void
}

; core::ptr::unique::Unique<T>::new_unchecked
; Function Attrs: inlinehint nonlazybind uwtable
define i8* @"_ZN4core3ptr6unique15Unique$LT$T$GT$13new_unchecked17h7fc14b75fe34d068E"(i8* %ptr) unnamed_addr #0 {
start:
  %0 = alloca i8*, align 8
; call core::ptr::non_null::NonNull<T>::new_unchecked
  %_2 = call i8* @"_ZN4core3ptr8non_null16NonNull$LT$T$GT$13new_unchecked17h81f071df40851f76E"(i8* %ptr)
  br label %bb1

bb1:                                              ; preds = %start
  store i8* %_2, i8** %0, align 8
  %1 = load i8*, i8** %0, align 8, !nonnull !2, !noundef !2
  ret i8* %1
}

; core::ptr::unique::Unique<T>::cast
; Function Attrs: inlinehint nonlazybind uwtable
define i8* @"_ZN4core3ptr6unique15Unique$LT$T$GT$4cast17h76377f1a53739a49E"(i8* %self) unnamed_addr #0 {
start:
; call core::ptr::non_null::NonNull<T>::cast
  %_2 = call i8* @"_ZN4core3ptr8non_null16NonNull$LT$T$GT$4cast17h65085bbf1568f5e7E"(i8* %self)
  br label %bb1

bb1:                                              ; preds = %start
; call <core::ptr::unique::Unique<T> as core::convert::From<core::ptr::non_null::NonNull<T>>>::from
  %0 = call i8* @"_ZN119_$LT$core..ptr..unique..Unique$LT$T$GT$$u20$as$u20$core..convert..From$LT$core..ptr..non_null..NonNull$LT$T$GT$$GT$$GT$4from17h5b42e99702ef4755E"(i8* %_2)
  br label %bb2

bb2:                                              ; preds = %bb1
  ret i8* %0
}

; core::ptr::unique::Unique<T>::as_ptr
; Function Attrs: inlinehint nonlazybind uwtable
define i8* @"_ZN4core3ptr6unique15Unique$LT$T$GT$6as_ptr17h17756bcc08056fbdE"(i8* %self) unnamed_addr #0 {
start:
; call core::ptr::non_null::NonNull<T>::as_ptr
  %0 = call i8* @"_ZN4core3ptr8non_null16NonNull$LT$T$GT$6as_ptr17h4f607d5ee52426edE"(i8* %self)
  br label %bb1

bb1:                                              ; preds = %start
  ret i8* %0
}

; core::ptr::unique::Unique<T>::dangling
; Function Attrs: inlinehint nonlazybind uwtable
define i8* @"_ZN4core3ptr6unique15Unique$LT$T$GT$8dangling17h16310859fb654b31E"() unnamed_addr #0 {
start:
; call core::ptr::non_null::NonNull<T>::dangling
  %_1 = call i8* @"_ZN4core3ptr8non_null16NonNull$LT$T$GT$8dangling17h919c9c14f6b9ae2eE"()
  br label %bb1

bb1:                                              ; preds = %start
; call <core::ptr::unique::Unique<T> as core::convert::From<core::ptr::non_null::NonNull<T>>>::from
  %0 = call i8* @"_ZN119_$LT$core..ptr..unique..Unique$LT$T$GT$$u20$as$u20$core..convert..From$LT$core..ptr..non_null..NonNull$LT$T$GT$$GT$$GT$4from17h5b42e99702ef4755E"(i8* %_1)
  br label %bb2

bb2:                                              ; preds = %bb1
  ret i8* %0
}

; core::ptr::mut_ptr::<impl *mut T>::guaranteed_eq
; Function Attrs: inlinehint nonlazybind uwtable
define zeroext i1 @"_ZN4core3ptr7mut_ptr31_$LT$impl$u20$$BP$mut$u20$T$GT$13guaranteed_eq17he9274a8738221544E"(i8* %self, i8* %other) unnamed_addr #0 {
start:
  %0 = alloca i8, align 1
  %1 = icmp eq i8* %self, %other
  %2 = zext i1 %1 to i8
  store i8 %2, i8* %0, align 1
  %3 = load i8, i8* %0, align 1, !range !6, !noundef !2
  %4 = trunc i8 %3 to i1
  br label %bb1

bb1:                                              ; preds = %start
  ret i1 %4
}

; core::ptr::mut_ptr::<impl *mut T>::is_null
; Function Attrs: inlinehint nonlazybind uwtable
define zeroext i1 @"_ZN4core3ptr7mut_ptr31_$LT$impl$u20$$BP$mut$u20$T$GT$7is_null17h7f95b972fe6999b3E"(i8* %self) unnamed_addr #0 {
start:
  %0 = alloca {}*, align 8
  %1 = bitcast {}** %0 to i64*
  store i64 0, i64* %1, align 8
  %2 = load {}*, {}** %0, align 8
; call core::ptr::metadata::from_raw_parts_mut
  %3 = call i8* @_ZN4core3ptr8metadata18from_raw_parts_mut17hac902efbfd8b4d37E({}* %2)
  br label %bb1

bb1:                                              ; preds = %start
; call core::ptr::mut_ptr::<impl *mut T>::guaranteed_eq
  %4 = call zeroext i1 @"_ZN4core3ptr7mut_ptr31_$LT$impl$u20$$BP$mut$u20$T$GT$13guaranteed_eq17he9274a8738221544E"(i8* %self, i8* %3)
  br label %bb2

bb2:                                              ; preds = %bb1
  ret i1 %4
}

; core::ptr::metadata::from_raw_parts_mut
; Function Attrs: inlinehint nonlazybind uwtable
define i8* @_ZN4core3ptr8metadata18from_raw_parts_mut17hac902efbfd8b4d37E({}* %data_address) unnamed_addr #0 {
start:
  %_4 = alloca %"core::ptr::metadata::PtrComponents<u8>", align 8
  %_3 = alloca %"core::ptr::metadata::PtrRepr<u8>", align 8
  %0 = bitcast %"core::ptr::metadata::PtrComponents<u8>"* %_4 to {}**
  store {}* %data_address, {}** %0, align 8
  %1 = getelementptr inbounds %"core::ptr::metadata::PtrComponents<u8>", %"core::ptr::metadata::PtrComponents<u8>"* %_4, i32 0, i32 1
  %2 = bitcast %"core::ptr::metadata::PtrRepr<u8>"* %_3 to %"core::ptr::metadata::PtrComponents<u8>"*
  %3 = bitcast %"core::ptr::metadata::PtrComponents<u8>"* %2 to i8*
  %4 = bitcast %"core::ptr::metadata::PtrComponents<u8>"* %_4 to i8*
  call void @llvm.memcpy.p0i8.p0i8.i64(i8* align 8 %3, i8* align 8 %4, i64 8, i1 false)
  %5 = bitcast %"core::ptr::metadata::PtrRepr<u8>"* %_3 to i8**
  %6 = load i8*, i8** %5, align 8
  ret i8* %6
}

; core::ptr::metadata::from_raw_parts_mut
; Function Attrs: inlinehint nonlazybind uwtable
define { [0 x i8]*, i64 } @_ZN4core3ptr8metadata18from_raw_parts_mut17hec0ff4fb7c610b99E({}* %data_address, i64 %metadata) unnamed_addr #0 {
start:
  %_4 = alloca { i8*, i64 }, align 8
  %_3 = alloca %"core::ptr::metadata::PtrRepr<[u8]>", align 8
  %0 = bitcast { i8*, i64 }* %_4 to {}**
  store {}* %data_address, {}** %0, align 8
  %1 = getelementptr inbounds { i8*, i64 }, { i8*, i64 }* %_4, i32 0, i32 1
  store i64 %metadata, i64* %1, align 8
  %2 = bitcast %"core::ptr::metadata::PtrRepr<[u8]>"* %_3 to { i8*, i64 }*
  %3 = getelementptr inbounds { i8*, i64 }, { i8*, i64 }* %_4, i32 0, i32 0
  %4 = load i8*, i8** %3, align 8
  %5 = getelementptr inbounds { i8*, i64 }, { i8*, i64 }* %_4, i32 0, i32 1
  %6 = load i64, i64* %5, align 8
  %7 = getelementptr inbounds { i8*, i64 }, { i8*, i64 }* %2, i32 0, i32 0
  store i8* %4, i8** %7, align 8
  %8 = getelementptr inbounds { i8*, i64 }, { i8*, i64 }* %2, i32 0, i32 1
  store i64 %6, i64* %8, align 8
  %9 = bitcast %"core::ptr::metadata::PtrRepr<[u8]>"* %_3 to { [0 x i8]*, i64 }*
  %10 = getelementptr inbounds { [0 x i8]*, i64 }, { [0 x i8]*, i64 }* %9, i32 0, i32 0
  %11 = load [0 x i8]*, [0 x i8]** %10, align 8
  %12 = getelementptr inbounds { [0 x i8]*, i64 }, { [0 x i8]*, i64 }* %9, i32 0, i32 1
  %13 = load i64, i64* %12, align 8
  %14 = insertvalue { [0 x i8]*, i64 } undef, [0 x i8]* %11, 0
  %15 = insertvalue { [0 x i8]*, i64 } %14, i64 %13, 1
  ret { [0 x i8]*, i64 } %15
}

; core::ptr::non_null::NonNull<T>::new_unchecked
; Function Attrs: inlinehint nonlazybind uwtable
define { i8*, i64 } @"_ZN4core3ptr8non_null16NonNull$LT$T$GT$13new_unchecked17h7966d8f6e3ef2fe6E"([0 x i8]* %ptr.0, i64 %ptr.1) unnamed_addr #0 {
start:
  %0 = alloca { i8*, i64 }, align 8
  %1 = bitcast { i8*, i64 }* %0 to { [0 x i8]*, i64 }*
  %2 = getelementptr inbounds { [0 x i8]*, i64 }, { [0 x i8]*, i64 }* %1, i32 0, i32 0
  store [0 x i8]* %ptr.0, [0 x i8]** %2, align 8
  %3 = getelementptr inbounds { [0 x i8]*, i64 }, { [0 x i8]*, i64 }* %1, i32 0, i32 1
  store i64 %ptr.1, i64* %3, align 8
  %4 = getelementptr inbounds { i8*, i64 }, { i8*, i64 }* %0, i32 0, i32 0
  %5 = load i8*, i8** %4, align 8, !nonnull !2, !noundef !2
  %6 = getelementptr inbounds { i8*, i64 }, { i8*, i64 }* %0, i32 0, i32 1
  %7 = load i64, i64* %6, align 8
  %8 = insertvalue { i8*, i64 } undef, i8* %5, 0
  %9 = insertvalue { i8*, i64 } %8, i64 %7, 1
  ret { i8*, i64 } %9
}

; core::ptr::non_null::NonNull<T>::new_unchecked
; Function Attrs: inlinehint nonlazybind uwtable
define i8* @"_ZN4core3ptr8non_null16NonNull$LT$T$GT$13new_unchecked17h81f071df40851f76E"(i8* %ptr) unnamed_addr #0 {
start:
  %0 = alloca i8*, align 8
  store i8* %ptr, i8** %0, align 8
  %1 = load i8*, i8** %0, align 8, !nonnull !2, !noundef !2
  ret i8* %1
}

; core::ptr::non_null::NonNull<T>::new
; Function Attrs: inlinehint nonlazybind uwtable
define i8* @"_ZN4core3ptr8non_null16NonNull$LT$T$GT$3new17h0319f2cdfd710cb6E"(i8* %ptr) unnamed_addr #0 {
start:
  %0 = alloca i8*, align 8
; call core::ptr::mut_ptr::<impl *mut T>::is_null
  %_3 = call zeroext i1 @"_ZN4core3ptr7mut_ptr31_$LT$impl$u20$$BP$mut$u20$T$GT$7is_null17h7f95b972fe6999b3E"(i8* %ptr)
  br label %bb1

bb1:                                              ; preds = %start
  %_2 = xor i1 %_3, true
  br i1 %_2, label %bb2, label %bb4

bb4:                                              ; preds = %bb1
  %1 = bitcast i8** %0 to {}**
  store {}* null, {}** %1, align 8
  br label %bb5

bb2:                                              ; preds = %bb1
; call core::ptr::non_null::NonNull<T>::new_unchecked
  %_5 = call i8* @"_ZN4core3ptr8non_null16NonNull$LT$T$GT$13new_unchecked17h81f071df40851f76E"(i8* %ptr)
  br label %bb3

bb3:                                              ; preds = %bb2
  store i8* %_5, i8** %0, align 8
  br label %bb5

bb5:                                              ; preds = %bb4, %bb3
  %2 = load i8*, i8** %0, align 8
  ret i8* %2
}

; core::ptr::non_null::NonNull<T>::cast
; Function Attrs: inlinehint nonlazybind uwtable
define i8* @"_ZN4core3ptr8non_null16NonNull$LT$T$GT$4cast17h63355d0f333364eaE"(i8* %self.0, i64 %self.1) unnamed_addr #0 {
start:
; call core::ptr::non_null::NonNull<T>::as_ptr
  %0 = call { [0 x i8]*, i64 } @"_ZN4core3ptr8non_null16NonNull$LT$T$GT$6as_ptr17h2558e8459f7d4136E"(i8* %self.0, i64 %self.1)
  %_3.0 = extractvalue { [0 x i8]*, i64 } %0, 0
  %_3.1 = extractvalue { [0 x i8]*, i64 } %0, 1
  br label %bb1

bb1:                                              ; preds = %start
  %_2 = bitcast [0 x i8]* %_3.0 to i8*
; call core::ptr::non_null::NonNull<T>::new_unchecked
  %1 = call i8* @"_ZN4core3ptr8non_null16NonNull$LT$T$GT$13new_unchecked17h81f071df40851f76E"(i8* %_2)
  br label %bb2

bb2:                                              ; preds = %bb1
  ret i8* %1
}

; core::ptr::non_null::NonNull<T>::cast
; Function Attrs: inlinehint nonlazybind uwtable
define i8* @"_ZN4core3ptr8non_null16NonNull$LT$T$GT$4cast17h65085bbf1568f5e7E"(i8* %self) unnamed_addr #0 {
start:
; call core::ptr::non_null::NonNull<T>::as_ptr
  %_3 = call i8* @"_ZN4core3ptr8non_null16NonNull$LT$T$GT$6as_ptr17h4f607d5ee52426edE"(i8* %self)
  br label %bb1

bb1:                                              ; preds = %start
; call core::ptr::non_null::NonNull<T>::new_unchecked
  %0 = call i8* @"_ZN4core3ptr8non_null16NonNull$LT$T$GT$13new_unchecked17h81f071df40851f76E"(i8* %_3)
  br label %bb2

bb2:                                              ; preds = %bb1
  ret i8* %0
}

; core::ptr::non_null::NonNull<T>::as_ptr
; Function Attrs: inlinehint nonlazybind uwtable
define { [0 x i8]*, i64 } @"_ZN4core3ptr8non_null16NonNull$LT$T$GT$6as_ptr17h2558e8459f7d4136E"(i8* %self.0, i64 %self.1) unnamed_addr #0 {
start:
  %_2.0 = bitcast i8* %self.0 to [0 x i8]*
  %0 = insertvalue { [0 x i8]*, i64 } undef, [0 x i8]* %_2.0, 0
  %1 = insertvalue { [0 x i8]*, i64 } %0, i64 %self.1, 1
  ret { [0 x i8]*, i64 } %1
}

; core::ptr::non_null::NonNull<T>::as_ptr
; Function Attrs: inlinehint nonlazybind uwtable
define i8* @"_ZN4core3ptr8non_null16NonNull$LT$T$GT$6as_ptr17h4f607d5ee52426edE"(i8* %self) unnamed_addr #0 {
start:
  ret i8* %self
}

; core::ptr::non_null::NonNull<T>::dangling
; Function Attrs: inlinehint nonlazybind uwtable
define i8* @"_ZN4core3ptr8non_null16NonNull$LT$T$GT$8dangling17h919c9c14f6b9ae2eE"() unnamed_addr #0 {
start:
  %0 = alloca i8*, align 8
  br label %bb1

bb1:                                              ; preds = %start
  %1 = bitcast i8** %0 to i64*
  store i64 1, i64* %1, align 8
  %2 = load i8*, i8** %0, align 8
  br label %bb2

bb2:                                              ; preds = %bb1
; call core::ptr::non_null::NonNull<T>::new_unchecked
  %3 = call i8* @"_ZN4core3ptr8non_null16NonNull$LT$T$GT$13new_unchecked17h81f071df40851f76E"(i8* %2)
  br label %bb3

bb3:                                              ; preds = %bb2
  ret i8* %3
}

; core::ptr::non_null::NonNull<[T]>::slice_from_raw_parts
; Function Attrs: inlinehint nonlazybind uwtable
define { i8*, i64 } @"_ZN4core3ptr8non_null26NonNull$LT$$u5b$T$u5d$$GT$20slice_from_raw_parts17h574cbb92bb2b1fbaE"(i8* %data, i64 %len) unnamed_addr #0 {
start:
; call core::ptr::non_null::NonNull<T>::as_ptr
  %_4 = call i8* @"_ZN4core3ptr8non_null16NonNull$LT$T$GT$6as_ptr17h4f607d5ee52426edE"(i8* %data)
  br label %bb1

bb1:                                              ; preds = %start
; call core::ptr::slice_from_raw_parts_mut
  %0 = call { [0 x i8]*, i64 } @_ZN4core3ptr24slice_from_raw_parts_mut17h0baf4609085c1abeE(i8* %_4, i64 %len)
  %_3.0 = extractvalue { [0 x i8]*, i64 } %0, 0
  %_3.1 = extractvalue { [0 x i8]*, i64 } %0, 1
  br label %bb2

bb2:                                              ; preds = %bb1
; call core::ptr::non_null::NonNull<T>::new_unchecked
  %1 = call { i8*, i64 } @"_ZN4core3ptr8non_null16NonNull$LT$T$GT$13new_unchecked17h7966d8f6e3ef2fe6E"([0 x i8]* %_3.0, i64 %_3.1)
  %2 = extractvalue { i8*, i64 } %1, 0
  %3 = extractvalue { i8*, i64 } %1, 1
  br label %bb3

bb3:                                              ; preds = %bb2
  %4 = insertvalue { i8*, i64 } undef, i8* %2, 0
  %5 = insertvalue { i8*, i64 } %4, i64 %3, 1
  ret { i8*, i64 } %5
}

; core::ptr::const_ptr::<impl *const T>::copy_to_nonoverlapping
; Function Attrs: inlinehint nonlazybind uwtable
define void @"_ZN4core3ptr9const_ptr33_$LT$impl$u20$$BP$const$u20$T$GT$22copy_to_nonoverlapping17h1f4a954704bb42edE"(i8* %self, i8* %dest, i64 %count) unnamed_addr #0 {
start:
; call core::intrinsics::copy_nonoverlapping
  call void @_ZN4core10intrinsics19copy_nonoverlapping17ha16c893393db4126E(i8* %self, i8* %dest, i64 %count)
  br label %bb1

bb1:                                              ; preds = %start
  ret void
}

; core::hint::unreachable_unchecked
; Function Attrs: inlinehint noreturn nonlazybind uwtable
define internal void @_ZN4core4hint21unreachable_unchecked17hfcf46d01897a56d2E() unnamed_addr #2 {
start:
  unreachable
}

; core::alloc::layout::Layout::from_size_align_unchecked
; Function Attrs: inlinehint nonlazybind uwtable
define internal { i64, i64 } @_ZN4core5alloc6layout6Layout25from_size_align_unchecked17h6a93fe8448442c49E(i64 %size, i64 %align) unnamed_addr #0 {
start:
  %0 = alloca { i64, i64 }, align 8
; call core::mem::valid_align::ValidAlign::new_unchecked
  %_4 = call i64 @_ZN4core3mem11valid_align10ValidAlign13new_unchecked17hb6ff39fcfd1489e8E(i64 %align), !range !8
  br label %bb1

bb1:                                              ; preds = %start
  %1 = bitcast { i64, i64 }* %0 to i64*
  store i64 %size, i64* %1, align 8
  %2 = getelementptr inbounds { i64, i64 }, { i64, i64 }* %0, i32 0, i32 1
  store i64 %_4, i64* %2, align 8
  %3 = getelementptr inbounds { i64, i64 }, { i64, i64 }* %0, i32 0, i32 0
  %4 = load i64, i64* %3, align 8
  %5 = getelementptr inbounds { i64, i64 }, { i64, i64 }* %0, i32 0, i32 1
  %6 = load i64, i64* %5, align 8, !range !8, !noundef !2
  %7 = insertvalue { i64, i64 } undef, i64 %4, 0
  %8 = insertvalue { i64, i64 } %7, i64 %6, 1
  ret { i64, i64 } %8
}

; core::alloc::layout::Layout::size
; Function Attrs: inlinehint nonlazybind uwtable
define internal i64 @_ZN4core5alloc6layout6Layout4size17h20277de05cbe8c92E({ i64, i64 }* align 8 %self) unnamed_addr #0 {
start:
  %0 = bitcast { i64, i64 }* %self to i64*
  %1 = load i64, i64* %0, align 8
  ret i64 %1
}

; core::alloc::layout::Layout::align
; Function Attrs: inlinehint nonlazybind uwtable
define internal i64 @_ZN4core5alloc6layout6Layout5align17hc2565f28d03535bcE({ i64, i64 }* align 8 %self) unnamed_addr #0 {
start:
  %0 = getelementptr inbounds { i64, i64 }, { i64, i64 }* %self, i32 0, i32 1
  %_3 = load i64, i64* %0, align 8, !range !8, !noundef !2
; call core::mem::valid_align::ValidAlign::as_nonzero
  %_2 = call i64 @_ZN4core3mem11valid_align10ValidAlign10as_nonzero17h8c69101bf27ef92eE(i64 %_3), !range !7
  br label %bb1

bb1:                                              ; preds = %start
; call core::num::nonzero::NonZeroUsize::get
  %1 = call i64 @_ZN4core3num7nonzero12NonZeroUsize3get17h52fd62f740a10c27E(i64 %_2)
  br label %bb2

bb2:                                              ; preds = %bb1
  ret i64 %1
}

; core::alloc::layout::Layout::array
; Function Attrs: inlinehint nonlazybind uwtable
define { i64, i64 } @_ZN4core5alloc6layout6Layout5array17h03782e3a29f55bc7E(i64 %n) unnamed_addr #0 {
start:
  %_3 = alloca { i64, i64 }, align 8
  %0 = alloca { i64, i64 }, align 8
  br label %bb1

bb1:                                              ; preds = %start
; call core::num::<impl usize>::checked_mul
  %1 = call { i64, i64 } @"_ZN4core3num23_$LT$impl$u20$usize$GT$11checked_mul17hd9557308306146adE"(i64 1, i64 %n)
  %_5.0 = extractvalue { i64, i64 } %1, 0
  %_5.1 = extractvalue { i64, i64 } %1, 1
  br label %bb2

bb2:                                              ; preds = %bb1
; call core::option::Option<T>::ok_or
  %2 = call { i64, i64 } @"_ZN4core6option15Option$LT$T$GT$5ok_or17hbeadb0cdd72981d8E"(i64 %_5.0, i64 %_5.1)
  %_4.0 = extractvalue { i64, i64 } %2, 0
  %_4.1 = extractvalue { i64, i64 } %2, 1
  br label %bb3

bb3:                                              ; preds = %bb2
; call <core::result::Result<T,E> as core::ops::try_trait::Try>::branch
  %3 = call { i64, i64 } @"_ZN79_$LT$core..result..Result$LT$T$C$E$GT$$u20$as$u20$core..ops..try_trait..Try$GT$6branch17hc82a798a46eefe51E"(i64 %_4.0, i64 %_4.1)
  store { i64, i64 } %3, { i64, i64 }* %_3, align 8
  br label %bb4

bb4:                                              ; preds = %bb3
  %4 = bitcast { i64, i64 }* %_3 to i64*
  %_9 = load i64, i64* %4, align 8, !range !9, !noundef !2
  switch i64 %_9, label %bb6 [
    i64 0, label %bb5
    i64 1, label %bb7
  ]

bb6:                                              ; preds = %bb4
  unreachable

bb5:                                              ; preds = %bb4
  %5 = getelementptr inbounds { i64, i64 }, { i64, i64 }* %_3, i32 0, i32 1
  %val = load i64, i64* %5, align 8
  br label %bb9

bb7:                                              ; preds = %bb4
; call <core::result::Result<T,F> as core::ops::try_trait::FromResidual<core::result::Result<core::convert::Infallible,E>>>::from_residual
  %6 = call { i64, i64 } @"_ZN153_$LT$core..result..Result$LT$T$C$F$GT$$u20$as$u20$core..ops..try_trait..FromResidual$LT$core..result..Result$LT$core..convert..Infallible$C$E$GT$$GT$$GT$13from_residual17h56fa2f0bd6fdde2dE"(%"core::panic::location::Location"* align 8 bitcast (<{ i8*, [16 x i8] }>* @alloc102 to %"core::panic::location::Location"*))
  store { i64, i64 } %6, { i64, i64 }* %0, align 8
  br label %bb8

bb8:                                              ; preds = %bb7
  br label %bb11

bb11:                                             ; preds = %bb10, %bb8
  %7 = getelementptr inbounds { i64, i64 }, { i64, i64 }* %0, i32 0, i32 0
  %8 = load i64, i64* %7, align 8
  %9 = getelementptr inbounds { i64, i64 }, { i64, i64 }* %0, i32 0, i32 1
  %10 = load i64, i64* %9, align 8, !range !3, !noundef !2
  %11 = insertvalue { i64, i64 } undef, i64 %8, 0
  %12 = insertvalue { i64, i64 } %11, i64 %10, 1
  ret { i64, i64 } %12

bb9:                                              ; preds = %bb5
; call core::alloc::layout::Layout::from_size_align_unchecked
  %13 = call { i64, i64 } @_ZN4core5alloc6layout6Layout25from_size_align_unchecked17h6a93fe8448442c49E(i64 %val, i64 1)
  %_13.0 = extractvalue { i64, i64 } %13, 0
  %_13.1 = extractvalue { i64, i64 } %13, 1
  br label %bb10

bb10:                                             ; preds = %bb9
  %14 = getelementptr inbounds { i64, i64 }, { i64, i64 }* %0, i32 0, i32 0
  store i64 %_13.0, i64* %14, align 8
  %15 = getelementptr inbounds { i64, i64 }, { i64, i64 }* %0, i32 0, i32 1
  store i64 %_13.1, i64* %15, align 8
  br label %bb11
}

; core::alloc::layout::Layout::dangling
; Function Attrs: inlinehint nonlazybind uwtable
define internal i8* @_ZN4core5alloc6layout6Layout8dangling17h1a94599ff09bcab6E({ i64, i64 }* align 8 %self) unnamed_addr #0 {
start:
  %0 = alloca i8*, align 8
; call core::alloc::layout::Layout::align
  %_3 = call i64 @_ZN4core5alloc6layout6Layout5align17hc2565f28d03535bcE({ i64, i64 }* align 8 %self)
  br label %bb1

bb1:                                              ; preds = %start
  %1 = bitcast i8** %0 to i64*
  store i64 %_3, i64* %1, align 8
  %2 = load i8*, i8** %0, align 8
  br label %bb2

bb2:                                              ; preds = %bb1
; call core::ptr::non_null::NonNull<T>::new_unchecked
  %3 = call i8* @"_ZN4core3ptr8non_null16NonNull$LT$T$GT$13new_unchecked17h81f071df40851f76E"(i8* %2)
  br label %bb3

bb3:                                              ; preds = %bb2
  ret i8* %3
}

; core::slice::<impl [T]>::len
; Function Attrs: inlinehint nonlazybind uwtable
define i64 @"_ZN4core5slice29_$LT$impl$u20$$u5b$T$u5d$$GT$3len17h4465eaaee699bf14E"([0 x i8]* align 1 %self.0, i64 %self.1) unnamed_addr #0 {
start:
  %_2 = alloca %"core::ptr::metadata::PtrRepr<[u8]>", align 8
  %0 = bitcast %"core::ptr::metadata::PtrRepr<[u8]>"* %_2 to { [0 x i8]*, i64 }*
  %1 = getelementptr inbounds { [0 x i8]*, i64 }, { [0 x i8]*, i64 }* %0, i32 0, i32 0
  store [0 x i8]* %self.0, [0 x i8]** %1, align 8
  %2 = getelementptr inbounds { [0 x i8]*, i64 }, { [0 x i8]*, i64 }* %0, i32 0, i32 1
  store i64 %self.1, i64* %2, align 8
  %3 = bitcast %"core::ptr::metadata::PtrRepr<[u8]>"* %_2 to { i8*, i64 }*
  %4 = getelementptr inbounds { i8*, i64 }, { i8*, i64 }* %3, i32 0, i32 1
  %5 = load i64, i64* %4, align 8
  ret i64 %5
}

; core::slice::<impl [T]>::as_ptr
; Function Attrs: inlinehint nonlazybind uwtable
define i8* @"_ZN4core5slice29_$LT$impl$u20$$u5b$T$u5d$$GT$6as_ptr17hc80c5ab5028171ffE"([0 x i8]* align 1 %self.0, i64 %self.1) unnamed_addr #0 {
start:
  %0 = bitcast [0 x i8]* %self.0 to i8*
  ret i8* %0
}

; core::option::Option<T>::map_or_else
; Function Attrs: inlinehint nonlazybind uwtable
define void @"_ZN4core6option15Option$LT$T$GT$11map_or_else17h3eedd34a3512fea0E"(%"alloc::string::String"* sret(%"alloc::string::String") %0, i8* align 1 %1, i64 %2, i64* align 8 %default) unnamed_addr #0 personality i32 (i32, i32, i64, %"unwind::libunwind::_Unwind_Exception"*, %"unwind::libunwind::_Unwind_Context"*)* @rust_eh_personality {
start:
  %3 = alloca { i8*, i32 }, align 8
  %_12 = alloca i8, align 1
  %_11 = alloca i8, align 1
  %_7 = alloca { i8*, i64 }, align 8
  %self = alloca { i8*, i64 }, align 8
  %4 = getelementptr inbounds { i8*, i64 }, { i8*, i64 }* %self, i32 0, i32 0
  store i8* %1, i8** %4, align 8
  %5 = getelementptr inbounds { i8*, i64 }, { i8*, i64 }* %self, i32 0, i32 1
  store i64 %2, i64* %5, align 8
  store i8 1, i8* %_12, align 1
  store i8 1, i8* %_11, align 1
  %6 = bitcast { i8*, i64 }* %self to {}**
  %7 = load {}*, {}** %6, align 8
  %8 = icmp eq {}* %7, null
  %_4 = select i1 %8, i64 0, i64 1
  switch i64 %_4, label %bb2 [
    i64 0, label %bb1
    i64 1, label %bb3
  ]

bb2:                                              ; preds = %start
  unreachable

bb1:                                              ; preds = %start
  store i8 0, i8* %_12, align 1
; invoke alloc::fmt::format::{{closure}}
  invoke void @"_ZN5alloc3fmt6format28_$u7b$$u7b$closure$u7d$$u7d$17haecc4cf6288ec585E"(%"alloc::string::String"* sret(%"alloc::string::String") %0, i64* align 8 %default)
          to label %bb5 unwind label %cleanup

bb3:                                              ; preds = %start
  %9 = bitcast { i8*, i64 }* %self to { [0 x i8]*, i64 }*
  %10 = getelementptr inbounds { [0 x i8]*, i64 }, { [0 x i8]*, i64 }* %9, i32 0, i32 0
  %t.0 = load [0 x i8]*, [0 x i8]** %10, align 8, !nonnull !2, !align !4, !noundef !2
  %11 = getelementptr inbounds { [0 x i8]*, i64 }, { [0 x i8]*, i64 }* %9, i32 0, i32 1
  %t.1 = load i64, i64* %11, align 8
  store i8 0, i8* %_11, align 1
  %12 = bitcast { i8*, i64 }* %_7 to { [0 x i8]*, i64 }*
  %13 = getelementptr inbounds { [0 x i8]*, i64 }, { [0 x i8]*, i64 }* %12, i32 0, i32 0
  store [0 x i8]* %t.0, [0 x i8]** %13, align 8
  %14 = getelementptr inbounds { [0 x i8]*, i64 }, { [0 x i8]*, i64 }* %12, i32 0, i32 1
  store i64 %t.1, i64* %14, align 8
  %15 = getelementptr inbounds { i8*, i64 }, { i8*, i64 }* %_7, i32 0, i32 0
  %16 = load i8*, i8** %15, align 8, !nonnull !2, !align !4, !noundef !2
  %17 = getelementptr inbounds { i8*, i64 }, { i8*, i64 }* %_7, i32 0, i32 1
  %18 = load i64, i64* %17, align 8
  %19 = bitcast i8* %16 to [0 x i8]*
; invoke core::ops::function::FnOnce::call_once
  invoke void @_ZN4core3ops8function6FnOnce9call_once17h2dacd2ba89ba2054E(%"alloc::string::String"* sret(%"alloc::string::String") %0, [0 x i8]* align 1 %19, i64 %18)
          to label %bb4 unwind label %cleanup

bb14:                                             ; preds = %cleanup
  %20 = load i8, i8* %_11, align 1, !range !6, !noundef !2
  %21 = trunc i8 %20 to i1
  br i1 %21, label %bb13, label %bb8

cleanup:                                          ; preds = %bb1, %bb3
  %22 = landingpad { i8*, i32 }
          cleanup
  %23 = extractvalue { i8*, i32 } %22, 0
  %24 = extractvalue { i8*, i32 } %22, 1
  %25 = getelementptr inbounds { i8*, i32 }, { i8*, i32 }* %3, i32 0, i32 0
  store i8* %23, i8** %25, align 8
  %26 = getelementptr inbounds { i8*, i32 }, { i8*, i32 }* %3, i32 0, i32 1
  store i32 %24, i32* %26, align 8
  br label %bb14

bb4:                                              ; preds = %bb3
  br label %bb11

bb11:                                             ; preds = %bb5, %bb4
  %27 = load i8, i8* %_11, align 1, !range !6, !noundef !2
  %28 = trunc i8 %27 to i1
  br i1 %28, label %bb10, label %bb6

bb5:                                              ; preds = %bb1
  br label %bb11

bb8:                                              ; preds = %bb13, %bb14
  %29 = load i8, i8* %_12, align 1, !range !6, !noundef !2
  %30 = trunc i8 %29 to i1
  br i1 %30, label %bb15, label %bb9

bb13:                                             ; preds = %bb14
  br label %bb8

bb6:                                              ; preds = %bb10, %bb11
  %31 = load i8, i8* %_12, align 1, !range !6, !noundef !2
  %32 = trunc i8 %31 to i1
  br i1 %32, label %bb12, label %bb7

bb10:                                             ; preds = %bb11
  br label %bb6

bb9:                                              ; preds = %bb15, %bb8
  %33 = bitcast { i8*, i32 }* %3 to i8**
  %34 = load i8*, i8** %33, align 8
  %35 = getelementptr inbounds { i8*, i32 }, { i8*, i32 }* %3, i32 0, i32 1
  %36 = load i32, i32* %35, align 8
  %37 = insertvalue { i8*, i32 } undef, i8* %34, 0
  %38 = insertvalue { i8*, i32 } %37, i32 %36, 1
  resume { i8*, i32 } %38

bb15:                                             ; preds = %bb8
  br label %bb9

bb7:                                              ; preds = %bb12, %bb6
  ret void

bb12:                                             ; preds = %bb6
  br label %bb7
}

; core::option::Option<T>::ok_or
; Function Attrs: inlinehint nonlazybind uwtable
define i8* @"_ZN4core6option15Option$LT$T$GT$5ok_or17h523958a5e05b5b5dE"(i8* %0) unnamed_addr #0 {
start:
  %_7 = alloca i8, align 1
  %1 = alloca i8*, align 8
  %self = alloca i8*, align 8
  store i8* %0, i8** %self, align 8
  store i8 1, i8* %_7, align 1
  %2 = bitcast i8** %self to {}**
  %3 = load {}*, {}** %2, align 8
  %4 = icmp eq {}* %3, null
  %_3 = select i1 %4, i64 0, i64 1
  switch i64 %_3, label %bb2 [
    i64 0, label %bb1
    i64 1, label %bb3
  ]

bb2:                                              ; preds = %start
  unreachable

bb1:                                              ; preds = %start
  store i8 0, i8* %_7, align 1
  %5 = bitcast i8** %1 to %"core::result::Result<core::ptr::non_null::NonNull<u8>, core::alloc::AllocError>::Err"*
  %6 = bitcast %"core::result::Result<core::ptr::non_null::NonNull<u8>, core::alloc::AllocError>::Err"* %5 to %"core::alloc::AllocError"*
  %7 = bitcast i8** %1 to {}**
  store {}* null, {}** %7, align 8
  br label %bb6

bb3:                                              ; preds = %start
  %v = load i8*, i8** %self, align 8, !nonnull !2, !noundef !2
  store i8* %v, i8** %1, align 8
  br label %bb6

bb6:                                              ; preds = %bb1, %bb3
  %8 = load i8, i8* %_7, align 1, !range !6, !noundef !2
  %9 = trunc i8 %8 to i1
  br i1 %9, label %bb5, label %bb4

bb4:                                              ; preds = %bb5, %bb6
  %10 = load i8*, i8** %1, align 8
  ret i8* %10

bb5:                                              ; preds = %bb6
  br label %bb4
}

; core::option::Option<T>::ok_or
; Function Attrs: inlinehint nonlazybind uwtable
define { i64, i64 } @"_ZN4core6option15Option$LT$T$GT$5ok_or17hbeadb0cdd72981d8E"(i64 %0, i64 %1) unnamed_addr #0 {
start:
  %_7 = alloca i8, align 1
  %2 = alloca { i64, i64 }, align 8
  %self = alloca { i64, i64 }, align 8
  %3 = getelementptr inbounds { i64, i64 }, { i64, i64 }* %self, i32 0, i32 0
  store i64 %0, i64* %3, align 8
  %4 = getelementptr inbounds { i64, i64 }, { i64, i64 }* %self, i32 0, i32 1
  store i64 %1, i64* %4, align 8
  store i8 1, i8* %_7, align 1
  %5 = bitcast { i64, i64 }* %self to i64*
  %_3 = load i64, i64* %5, align 8, !range !9, !noundef !2
  switch i64 %_3, label %bb2 [
    i64 0, label %bb1
    i64 1, label %bb3
  ]

bb2:                                              ; preds = %start
  unreachable

bb1:                                              ; preds = %start
  store i8 0, i8* %_7, align 1
  %6 = getelementptr inbounds { i64, i64 }, { i64, i64 }* %2, i32 0, i32 1
  %7 = bitcast i64* %6 to %"core::alloc::layout::LayoutError"*
  %8 = bitcast { i64, i64 }* %2 to i64*
  store i64 1, i64* %8, align 8
  br label %bb6

bb3:                                              ; preds = %start
  %9 = getelementptr inbounds { i64, i64 }, { i64, i64 }* %self, i32 0, i32 1
  %v = load i64, i64* %9, align 8
  %10 = getelementptr inbounds { i64, i64 }, { i64, i64 }* %2, i32 0, i32 1
  store i64 %v, i64* %10, align 8
  %11 = bitcast { i64, i64 }* %2 to i64*
  store i64 0, i64* %11, align 8
  br label %bb6

bb6:                                              ; preds = %bb1, %bb3
  %12 = load i8, i8* %_7, align 1, !range !6, !noundef !2
  %13 = trunc i8 %12 to i1
  br i1 %13, label %bb5, label %bb4

bb4:                                              ; preds = %bb5, %bb6
  %14 = getelementptr inbounds { i64, i64 }, { i64, i64 }* %2, i32 0, i32 0
  %15 = load i64, i64* %14, align 8, !range !9, !noundef !2
  %16 = getelementptr inbounds { i64, i64 }, { i64, i64 }* %2, i32 0, i32 1
  %17 = load i64, i64* %16, align 8
  %18 = insertvalue { i64, i64 } undef, i64 %15, 0
  %19 = insertvalue { i64, i64 } %18, i64 %17, 1
  ret { i64, i64 } %19

bb5:                                              ; preds = %bb6
  br label %bb4
}

; core::result::Result<T,E>::unwrap_unchecked
; Function Attrs: inlinehint nonlazybind uwtable
define { i64, i64 } @"_ZN4core6result19Result$LT$T$C$E$GT$16unwrap_unchecked17hec8a529fb6766745E"(i64 %0, i64 %1, %"core::panic::location::Location"* align 8 %2) unnamed_addr #0 personality i32 (i32, i32, i64, %"unwind::libunwind::_Unwind_Exception"*, %"unwind::libunwind::_Unwind_Context"*)* @rust_eh_personality {
start:
  %3 = alloca { i8*, i32 }, align 8
  %self = alloca { i64, i64 }, align 8
  %4 = getelementptr inbounds { i64, i64 }, { i64, i64 }* %self, i32 0, i32 0
  store i64 %0, i64* %4, align 8
  %5 = getelementptr inbounds { i64, i64 }, { i64, i64 }* %self, i32 0, i32 1
  store i64 %1, i64* %5, align 8
  %6 = getelementptr inbounds { i64, i64 }, { i64, i64 }* %self, i32 0, i32 1
  %7 = load i64, i64* %6, align 8, !range !3, !noundef !2
  %8 = icmp eq i64 %7, 0
  %_2 = select i1 %8, i64 1, i64 0
  switch i64 %_2, label %bb2 [
    i64 0, label %bb3
    i64 1, label %bb1
  ]

bb2:                                              ; preds = %start
  unreachable

bb3:                                              ; preds = %start
  %9 = getelementptr inbounds { i64, i64 }, { i64, i64 }* %self, i32 0, i32 0
  %t.0 = load i64, i64* %9, align 8
  %10 = getelementptr inbounds { i64, i64 }, { i64, i64 }* %self, i32 0, i32 1
  %t.1 = load i64, i64* %10, align 8, !range !8, !noundef !2
  %11 = getelementptr inbounds { i64, i64 }, { i64, i64 }* %self, i32 0, i32 1
  %12 = load i64, i64* %11, align 8, !range !3, !noundef !2
  %13 = icmp eq i64 %12, 0
  %_6 = select i1 %13, i64 1, i64 0
  %14 = icmp eq i64 %_6, 0
  br i1 %14, label %bb5, label %bb6

bb1:                                              ; preds = %start
; invoke core::hint::unreachable_unchecked
  invoke void @_ZN4core4hint21unreachable_unchecked17hfcf46d01897a56d2E() #12
          to label %unreachable unwind label %cleanup

bb10:                                             ; preds = %cleanup
  %15 = getelementptr inbounds { i64, i64 }, { i64, i64 }* %self, i32 0, i32 1
  %16 = load i64, i64* %15, align 8, !range !3, !noundef !2
  %17 = icmp eq i64 %16, 0
  %_7 = select i1 %17, i64 1, i64 0
  %18 = icmp eq i64 %_7, 0
  br i1 %18, label %bb7, label %bb9

cleanup:                                          ; preds = %bb1
  %19 = landingpad { i8*, i32 }
          cleanup
  %20 = extractvalue { i8*, i32 } %19, 0
  %21 = extractvalue { i8*, i32 } %19, 1
  %22 = getelementptr inbounds { i8*, i32 }, { i8*, i32 }* %3, i32 0, i32 0
  store i8* %20, i8** %22, align 8
  %23 = getelementptr inbounds { i8*, i32 }, { i8*, i32 }* %3, i32 0, i32 1
  store i32 %21, i32* %23, align 8
  br label %bb10

unreachable:                                      ; preds = %bb1
  unreachable

bb7:                                              ; preds = %bb10
  br i1 true, label %bb8, label %bb4

bb9:                                              ; preds = %bb10
  br label %bb4

bb4:                                              ; preds = %bb8, %bb7, %bb9
  %24 = bitcast { i8*, i32 }* %3 to i8**
  %25 = load i8*, i8** %24, align 8
  %26 = getelementptr inbounds { i8*, i32 }, { i8*, i32 }* %3, i32 0, i32 1
  %27 = load i32, i32* %26, align 8
  %28 = insertvalue { i8*, i32 } undef, i8* %25, 0
  %29 = insertvalue { i8*, i32 } %28, i32 %27, 1
  resume { i8*, i32 } %29

bb8:                                              ; preds = %bb7
  br label %bb4

bb5:                                              ; preds = %bb6, %bb3
  %30 = insertvalue { i64, i64 } undef, i64 %t.0, 0
  %31 = insertvalue { i64, i64 } %30, i64 %t.1, 1
  ret { i64, i64 } %31

bb6:                                              ; preds = %bb3
  br label %bb5
}

; <T as core::convert::From<T>>::from
; Function Attrs: nonlazybind uwtable
define void @"_ZN50_$LT$T$u20$as$u20$core..convert..From$LT$T$GT$$GT$4from17h7457603202b956b1E"() unnamed_addr #1 {
start:
  ret void
}

; <T as core::convert::From<T>>::from
; Function Attrs: nonlazybind uwtable
define void @"_ZN50_$LT$T$u20$as$u20$core..convert..From$LT$T$GT$$GT$4from17hdca68d510ebdc102E"() unnamed_addr #1 {
start:
  ret void
}

; <T as core::convert::Into<U>>::into
; Function Attrs: nonlazybind uwtable
define { i64, i64 } @"_ZN50_$LT$T$u20$as$u20$core..convert..Into$LT$U$GT$$GT$4into17h21f0a095ca780b2cE"(i64 %self.0, i64 %self.1) unnamed_addr #1 {
start:
; call <alloc::collections::TryReserveError as core::convert::From<alloc::collections::TryReserveErrorKind>>::from
  %0 = call { i64, i64 } @"_ZN122_$LT$alloc..collections..TryReserveError$u20$as$u20$core..convert..From$LT$alloc..collections..TryReserveErrorKind$GT$$GT$4from17h896fb433ae45eb40E"(i64 %self.0, i64 %self.1)
  %1 = extractvalue { i64, i64 } %0, 0
  %2 = extractvalue { i64, i64 } %0, 1
  br label %bb1

bb1:                                              ; preds = %start
  %3 = insertvalue { i64, i64 } undef, i64 %1, 0
  %4 = insertvalue { i64, i64 } %3, i64 %2, 1
  ret { i64, i64 } %4
}

; <T as core::convert::Into<U>>::into
; Function Attrs: nonlazybind uwtable
define i8* @"_ZN50_$LT$T$u20$as$u20$core..convert..Into$LT$U$GT$$GT$4into17h825a841bc32687b8E"(i8* %self) unnamed_addr #1 {
start:
; call <core::ptr::non_null::NonNull<T> as core::convert::From<core::ptr::unique::Unique<T>>>::from
  %0 = call i8* @"_ZN119_$LT$core..ptr..non_null..NonNull$LT$T$GT$$u20$as$u20$core..convert..From$LT$core..ptr..unique..Unique$LT$T$GT$$GT$$GT$4from17h2b23729effc62aeaE"(i8* %self)
  br label %bb1

bb1:                                              ; preds = %start
  ret i8* %0
}

; <T as alloc::slice::hack::ConvertVec>::to_vec
; Function Attrs: inlinehint nonlazybind uwtable
define void @"_ZN52_$LT$T$u20$as$u20$alloc..slice..hack..ConvertVec$GT$6to_vec17h651a308f59449472E"(%"alloc::vec::Vec<u8>"* sret(%"alloc::vec::Vec<u8>") %v, [0 x i8]* align 1 %s.0, i64 %s.1) unnamed_addr #0 personality i32 (i32, i32, i64, %"unwind::libunwind::_Unwind_Exception"*, %"unwind::libunwind::_Unwind_Context"*)* @rust_eh_personality {
start:
  %0 = alloca { i8*, i32 }, align 8
  %_17 = alloca i8, align 1
  store i8 1, i8* %_17, align 1
; invoke core::slice::<impl [T]>::len
  %_3 = invoke i64 @"_ZN4core5slice29_$LT$impl$u20$$u5b$T$u5d$$GT$3len17h4465eaaee699bf14E"([0 x i8]* align 1 %s.0, i64 %s.1)
          to label %bb1 unwind label %cleanup

bb12:                                             ; preds = %bb9, %cleanup
  %1 = load i8, i8* %_17, align 1, !range !6, !noundef !2
  %2 = trunc i8 %1 to i1
  br i1 %2, label %bb11, label %bb10

cleanup:                                          ; preds = %bb1, %start
  %3 = landingpad { i8*, i32 }
          cleanup
  %4 = extractvalue { i8*, i32 } %3, 0
  %5 = extractvalue { i8*, i32 } %3, 1
  %6 = getelementptr inbounds { i8*, i32 }, { i8*, i32 }* %0, i32 0, i32 0
  store i8* %4, i8** %6, align 8
  %7 = getelementptr inbounds { i8*, i32 }, { i8*, i32 }* %0, i32 0, i32 1
  store i32 %5, i32* %7, align 8
  br label %bb12

bb1:                                              ; preds = %start
  store i8 0, i8* %_17, align 1
; invoke alloc::vec::Vec<T,A>::with_capacity_in
  invoke void @"_ZN5alloc3vec16Vec$LT$T$C$A$GT$16with_capacity_in17h31b4b94cb6cb91c6E"(%"alloc::vec::Vec<u8>"* sret(%"alloc::vec::Vec<u8>") %v, i64 %_3)
          to label %bb2 unwind label %cleanup

bb2:                                              ; preds = %bb1
; invoke core::slice::<impl [T]>::as_ptr
  %_7 = invoke i8* @"_ZN4core5slice29_$LT$impl$u20$$u5b$T$u5d$$GT$6as_ptr17hc80c5ab5028171ffE"([0 x i8]* align 1 %s.0, i64 %s.1)
          to label %bb3 unwind label %cleanup1

bb9:                                              ; preds = %cleanup1
; invoke core::ptr::drop_in_place<alloc::vec::Vec<u8>>
  invoke void @"_ZN4core3ptr46drop_in_place$LT$alloc..vec..Vec$LT$u8$GT$$GT$17ha6112de1cd887819E"(%"alloc::vec::Vec<u8>"* %v) #13
          to label %bb12 unwind label %abort

cleanup1:                                         ; preds = %bb7, %bb6, %bb5, %bb4, %bb3, %bb2
  %8 = landingpad { i8*, i32 }
          cleanup
  %9 = extractvalue { i8*, i32 } %8, 0
  %10 = extractvalue { i8*, i32 } %8, 1
  %11 = getelementptr inbounds { i8*, i32 }, { i8*, i32 }* %0, i32 0, i32 0
  store i8* %9, i8** %11, align 8
  %12 = getelementptr inbounds { i8*, i32 }, { i8*, i32 }* %0, i32 0, i32 1
  store i32 %10, i32* %12, align 8
  br label %bb9

bb3:                                              ; preds = %bb2
; invoke alloc::vec::Vec<T,A>::as_mut_ptr
  %_9 = invoke i8* @"_ZN5alloc3vec16Vec$LT$T$C$A$GT$10as_mut_ptr17h360fb26c6b98e1e2E"(%"alloc::vec::Vec<u8>"* align 8 %v)
          to label %bb4 unwind label %cleanup1

bb4:                                              ; preds = %bb3
; invoke core::slice::<impl [T]>::len
  %_11 = invoke i64 @"_ZN4core5slice29_$LT$impl$u20$$u5b$T$u5d$$GT$3len17h4465eaaee699bf14E"([0 x i8]* align 1 %s.0, i64 %s.1)
          to label %bb5 unwind label %cleanup1

bb5:                                              ; preds = %bb4
; invoke core::ptr::const_ptr::<impl *const T>::copy_to_nonoverlapping
  invoke void @"_ZN4core3ptr9const_ptr33_$LT$impl$u20$$BP$const$u20$T$GT$22copy_to_nonoverlapping17h1f4a954704bb42edE"(i8* %_7, i8* %_9, i64 %_11)
          to label %bb6 unwind label %cleanup1

bb6:                                              ; preds = %bb5
; invoke core::slice::<impl [T]>::len
  %_15 = invoke i64 @"_ZN4core5slice29_$LT$impl$u20$$u5b$T$u5d$$GT$3len17h4465eaaee699bf14E"([0 x i8]* align 1 %s.0, i64 %s.1)
          to label %bb7 unwind label %cleanup1

bb7:                                              ; preds = %bb6
; invoke alloc::vec::Vec<T,A>::set_len
  invoke void @"_ZN5alloc3vec16Vec$LT$T$C$A$GT$7set_len17hf525e0393e4c5dc6E"(%"alloc::vec::Vec<u8>"* align 8 %v, i64 %_15)
          to label %bb8 unwind label %cleanup1

bb8:                                              ; preds = %bb7
  ret void

abort:                                            ; preds = %bb9
  %13 = landingpad { i8*, i32 }
          cleanup
; call core::panicking::panic_no_unwind
  call void @_ZN4core9panicking15panic_no_unwind17hd9b8f600c78bc0e5E() #14
  unreachable

bb10:                                             ; preds = %bb11, %bb12
  %14 = bitcast { i8*, i32 }* %0 to i8**
  %15 = load i8*, i8** %14, align 8
  %16 = getelementptr inbounds { i8*, i32 }, { i8*, i32 }* %0, i32 0, i32 1
  %17 = load i32, i32* %16, align 8
  %18 = insertvalue { i8*, i32 } undef, i8* %15, 0
  %19 = insertvalue { i8*, i32 } %18, i32 %17, 1
  resume { i8*, i32 } %19

bb11:                                             ; preds = %bb12
  br label %bb10
}

; alloc::fmt::format
; Function Attrs: inlinehint nonlazybind uwtable
define internal void @_ZN5alloc3fmt6format17hf9265331cafdf3a3E(%"alloc::string::String"* sret(%"alloc::string::String") %0, %"core::fmt::Arguments"* %args) unnamed_addr #0 {
start:
  %_4 = alloca i64*, align 8
; call core::fmt::Arguments::as_str
  %1 = call { i8*, i64 } @_ZN4core3fmt9Arguments6as_str17h7b6e0590c41dd1b7E(%"core::fmt::Arguments"* align 8 %args)
  %_2.0 = extractvalue { i8*, i64 } %1, 0
  %_2.1 = extractvalue { i8*, i64 } %1, 1
  br label %bb1

bb1:                                              ; preds = %start
  %2 = bitcast i64** %_4 to %"core::fmt::Arguments"**
  store %"core::fmt::Arguments"* %args, %"core::fmt::Arguments"** %2, align 8
  %3 = load i64*, i64** %_4, align 8, !nonnull !2, !align !5, !noundef !2
; call core::option::Option<T>::map_or_else
  call void @"_ZN4core6option15Option$LT$T$GT$11map_or_else17h3eedd34a3512fea0E"(%"alloc::string::String"* sret(%"alloc::string::String") %0, i8* align 1 %_2.0, i64 %_2.1, i64* align 8 %3)
  br label %bb2

bb2:                                              ; preds = %bb1
  ret void
}

; alloc::fmt::format::{{closure}}
; Function Attrs: inlinehint nonlazybind uwtable
define void @"_ZN5alloc3fmt6format28_$u7b$$u7b$closure$u7d$$u7d$17haecc4cf6288ec585E"(%"alloc::string::String"* sret(%"alloc::string::String") %0, i64* align 8 %_1) unnamed_addr #0 {
start:
  %_2 = alloca %"core::fmt::Arguments", align 8
  %_3 = bitcast i64* %_1 to %"core::fmt::Arguments"*
  %1 = bitcast %"core::fmt::Arguments"* %_2 to i8*
  %2 = bitcast %"core::fmt::Arguments"* %_3 to i8*
  call void @llvm.memcpy.p0i8.p0i8.i64(i8* align 8 %1, i8* align 8 %2, i64 48, i1 false)
; call alloc::fmt::format::format_inner
  call void @_ZN5alloc3fmt6format12format_inner17h3fdf7b01996f555cE(%"alloc::string::String"* sret(%"alloc::string::String") %0, %"core::fmt::Arguments"* %_2)
  br label %bb1

bb1:                                              ; preds = %start
  ret void
}

; alloc::str::<impl alloc::borrow::ToOwned for str>::to_owned
; Function Attrs: inlinehint nonlazybind uwtable
define internal void @"_ZN5alloc3str56_$LT$impl$u20$alloc..borrow..ToOwned$u20$for$u20$str$GT$8to_owned17h3f11a66784b7d162E"(%"alloc::string::String"* sret(%"alloc::string::String") %0, [0 x i8]* align 1 %self.0, i64 %self.1) unnamed_addr #0 {
start:
  %1 = alloca { [0 x i8]*, i64 }, align 8
  %_2 = alloca %"alloc::vec::Vec<u8>", align 8
  %2 = getelementptr inbounds { [0 x i8]*, i64 }, { [0 x i8]*, i64 }* %1, i32 0, i32 0
  store [0 x i8]* %self.0, [0 x i8]** %2, align 8
  %3 = getelementptr inbounds { [0 x i8]*, i64 }, { [0 x i8]*, i64 }* %1, i32 0, i32 1
  store i64 %self.1, i64* %3, align 8
  %4 = getelementptr inbounds { [0 x i8]*, i64 }, { [0 x i8]*, i64 }* %1, i32 0, i32 0
  %5 = load [0 x i8]*, [0 x i8]** %4, align 8, !nonnull !2, !align !4, !noundef !2
  %6 = getelementptr inbounds { [0 x i8]*, i64 }, { [0 x i8]*, i64 }* %1, i32 0, i32 1
  %7 = load i64, i64* %6, align 8
  %8 = insertvalue { [0 x i8]*, i64 } undef, [0 x i8]* %5, 0
  %9 = insertvalue { [0 x i8]*, i64 } %8, i64 %7, 1
  %_4.0 = extractvalue { [0 x i8]*, i64 } %9, 0
  %_4.1 = extractvalue { [0 x i8]*, i64 } %9, 1
  br label %bb1

bb1:                                              ; preds = %start
; call alloc::slice::<impl alloc::borrow::ToOwned for [T]>::to_owned
  call void @"_ZN5alloc5slice64_$LT$impl$u20$alloc..borrow..ToOwned$u20$for$u20$$u5b$T$u5d$$GT$8to_owned17h1f02d3501df20607E"(%"alloc::vec::Vec<u8>"* sret(%"alloc::vec::Vec<u8>") %_2, [0 x i8]* align 1 %_4.0, i64 %_4.1)
  br label %bb2

bb2:                                              ; preds = %bb1
; call alloc::string::String::from_utf8_unchecked
  call void @_ZN5alloc6string6String19from_utf8_unchecked17hcf8c49e0788a41c0E(%"alloc::string::String"* sret(%"alloc::string::String") %0, %"alloc::vec::Vec<u8>"* %_2)
  br label %bb3

bb3:                                              ; preds = %bb2
  ret void
}

; alloc::vec::Vec<T,A>::as_mut_ptr
; Function Attrs: inlinehint nonlazybind uwtable
define i8* @"_ZN5alloc3vec16Vec$LT$T$C$A$GT$10as_mut_ptr17h360fb26c6b98e1e2E"(%"alloc::vec::Vec<u8>"* align 8 %self) unnamed_addr #0 {
start:
  %_2 = bitcast %"alloc::vec::Vec<u8>"* %self to { i8*, i64 }*
; call alloc::raw_vec::RawVec<T,A>::ptr
  %ptr = call i8* @"_ZN5alloc7raw_vec19RawVec$LT$T$C$A$GT$3ptr17hbdfc86a5334973dcE"({ i8*, i64 }* align 8 %_2)
  br label %bb1

bb1:                                              ; preds = %start
; call core::ptr::mut_ptr::<impl *mut T>::is_null
  %_5 = call zeroext i1 @"_ZN4core3ptr7mut_ptr31_$LT$impl$u20$$BP$mut$u20$T$GT$7is_null17h7f95b972fe6999b3E"(i8* %ptr)
  br label %bb2

bb2:                                              ; preds = %bb1
  %_4 = xor i1 %_5, true
  call void @llvm.assume(i1 %_4)
  br label %bb3

bb3:                                              ; preds = %bb2
  ret i8* %ptr
}

; alloc::vec::Vec<T,A>::with_capacity_in
; Function Attrs: inlinehint nonlazybind uwtable
define void @"_ZN5alloc3vec16Vec$LT$T$C$A$GT$16with_capacity_in17h31b4b94cb6cb91c6E"(%"alloc::vec::Vec<u8>"* sret(%"alloc::vec::Vec<u8>") %0, i64 %capacity) unnamed_addr #0 {
start:
; call alloc::raw_vec::RawVec<T,A>::with_capacity_in
  %1 = call { i8*, i64 } @"_ZN5alloc7raw_vec19RawVec$LT$T$C$A$GT$16with_capacity_in17h0232bc7881c8017dE"(i64 %capacity)
  %_3.0 = extractvalue { i8*, i64 } %1, 0
  %_3.1 = extractvalue { i8*, i64 } %1, 1
  br label %bb1

bb1:                                              ; preds = %start
  %2 = bitcast %"alloc::vec::Vec<u8>"* %0 to { i8*, i64 }*
  %3 = getelementptr inbounds { i8*, i64 }, { i8*, i64 }* %2, i32 0, i32 0
  store i8* %_3.0, i8** %3, align 8
  %4 = getelementptr inbounds { i8*, i64 }, { i8*, i64 }* %2, i32 0, i32 1
  store i64 %_3.1, i64* %4, align 8
  %5 = getelementptr inbounds %"alloc::vec::Vec<u8>", %"alloc::vec::Vec<u8>"* %0, i32 0, i32 1
  store i64 0, i64* %5, align 8
  ret void
}

; alloc::vec::Vec<T,A>::set_len
; Function Attrs: inlinehint nonlazybind uwtable
define void @"_ZN5alloc3vec16Vec$LT$T$C$A$GT$7set_len17hf525e0393e4c5dc6E"(%"alloc::vec::Vec<u8>"* align 8 %self, i64 %new_len) unnamed_addr #0 {
start:
  %0 = getelementptr inbounds %"alloc::vec::Vec<u8>", %"alloc::vec::Vec<u8>"* %self, i32 0, i32 1
  store i64 %new_len, i64* %0, align 8
  ret void
}

; alloc::alloc::alloc_zeroed
; Function Attrs: inlinehint nonlazybind uwtable
define internal i8* @_ZN5alloc5alloc12alloc_zeroed17h2384067451db6086E(i64 %0, i64 %1) unnamed_addr #0 {
start:
  %layout = alloca { i64, i64 }, align 8
  %2 = getelementptr inbounds { i64, i64 }, { i64, i64 }* %layout, i32 0, i32 0
  store i64 %0, i64* %2, align 8
  %3 = getelementptr inbounds { i64, i64 }, { i64, i64 }* %layout, i32 0, i32 1
  store i64 %1, i64* %3, align 8
; call core::alloc::layout::Layout::size
  %_2 = call i64 @_ZN4core5alloc6layout6Layout4size17h20277de05cbe8c92E({ i64, i64 }* align 8 %layout)
  br label %bb1

bb1:                                              ; preds = %start
; call core::alloc::layout::Layout::align
  %_4 = call i64 @_ZN4core5alloc6layout6Layout5align17hc2565f28d03535bcE({ i64, i64 }* align 8 %layout)
  br label %bb2

bb2:                                              ; preds = %bb1
  %4 = call i8* @__rust_alloc_zeroed(i64 %_2, i64 %_4) #15
  br label %bb3

bb3:                                              ; preds = %bb2
  ret i8* %4
}

; alloc::alloc::alloc
; Function Attrs: inlinehint nonlazybind uwtable
define internal i8* @_ZN5alloc5alloc5alloc17h6fa2ea6a722f53c9E(i64 %0, i64 %1) unnamed_addr #0 {
start:
  %layout = alloca { i64, i64 }, align 8
  %2 = getelementptr inbounds { i64, i64 }, { i64, i64 }* %layout, i32 0, i32 0
  store i64 %0, i64* %2, align 8
  %3 = getelementptr inbounds { i64, i64 }, { i64, i64 }* %layout, i32 0, i32 1
  store i64 %1, i64* %3, align 8
; call core::alloc::layout::Layout::size
  %_2 = call i64 @_ZN4core5alloc6layout6Layout4size17h20277de05cbe8c92E({ i64, i64 }* align 8 %layout)
  br label %bb1

bb1:                                              ; preds = %start
; call core::alloc::layout::Layout::align
  %_4 = call i64 @_ZN4core5alloc6layout6Layout5align17hc2565f28d03535bcE({ i64, i64 }* align 8 %layout)
  br label %bb2

bb2:                                              ; preds = %bb1
  %4 = call i8* @__rust_alloc(i64 %_2, i64 %_4) #15
  br label %bb3

bb3:                                              ; preds = %bb2
  ret i8* %4
}

; alloc::alloc::Global::alloc_impl
; Function Attrs: inlinehint nonlazybind uwtable
define internal { i8*, i64 } @_ZN5alloc5alloc6Global10alloc_impl17hd0baf1bd0d750b50E(%"alloc::alloc::Global"* align 1 %self, i64 %0, i64 %1, i1 zeroext %zeroed) unnamed_addr #0 {
start:
  %_15 = alloca i8*, align 8
  %raw_ptr = alloca i8*, align 8
  %2 = alloca { i8*, i64 }, align 8
  %layout = alloca { i64, i64 }, align 8
  %3 = getelementptr inbounds { i64, i64 }, { i64, i64 }* %layout, i32 0, i32 0
  store i64 %0, i64* %3, align 8
  %4 = getelementptr inbounds { i64, i64 }, { i64, i64 }* %layout, i32 0, i32 1
  store i64 %1, i64* %4, align 8
; call core::alloc::layout::Layout::size
  %_4 = call i64 @_ZN4core5alloc6layout6Layout4size17h20277de05cbe8c92E({ i64, i64 }* align 8 %layout)
  br label %bb1

bb1:                                              ; preds = %start
  %5 = icmp eq i64 %_4, 0
  br i1 %5, label %bb3, label %bb2

bb3:                                              ; preds = %bb1
; call core::alloc::layout::Layout::dangling
  %_7 = call i8* @_ZN4core5alloc6layout6Layout8dangling17h1a94599ff09bcab6E({ i64, i64 }* align 8 %layout)
  br label %bb4

bb2:                                              ; preds = %bb1
  br i1 %zeroed, label %bb6, label %bb8

bb8:                                              ; preds = %bb2
  %6 = getelementptr inbounds { i64, i64 }, { i64, i64 }* %layout, i32 0, i32 0
  %_13.0 = load i64, i64* %6, align 8
  %7 = getelementptr inbounds { i64, i64 }, { i64, i64 }* %layout, i32 0, i32 1
  %_13.1 = load i64, i64* %7, align 8, !range !8, !noundef !2
; call alloc::alloc::alloc
  %8 = call i8* @_ZN5alloc5alloc5alloc17h6fa2ea6a722f53c9E(i64 %_13.0, i64 %_13.1)
  store i8* %8, i8** %raw_ptr, align 8
  br label %bb9

bb6:                                              ; preds = %bb2
  %9 = getelementptr inbounds { i64, i64 }, { i64, i64 }* %layout, i32 0, i32 0
  %_12.0 = load i64, i64* %9, align 8
  %10 = getelementptr inbounds { i64, i64 }, { i64, i64 }* %layout, i32 0, i32 1
  %_12.1 = load i64, i64* %10, align 8, !range !8, !noundef !2
; call alloc::alloc::alloc_zeroed
  %11 = call i8* @_ZN5alloc5alloc12alloc_zeroed17h2384067451db6086E(i64 %_12.0, i64 %_12.1)
  store i8* %11, i8** %raw_ptr, align 8
  br label %bb7

bb7:                                              ; preds = %bb6
  br label %bb10

bb10:                                             ; preds = %bb9, %bb7
  %_18 = load i8*, i8** %raw_ptr, align 8
; call core::ptr::non_null::NonNull<T>::new
  %_17 = call i8* @"_ZN4core3ptr8non_null16NonNull$LT$T$GT$3new17h0319f2cdfd710cb6E"(i8* %_18)
  br label %bb11

bb9:                                              ; preds = %bb8
  br label %bb10

bb11:                                             ; preds = %bb10
; call core::option::Option<T>::ok_or
  %_16 = call i8* @"_ZN4core6option15Option$LT$T$GT$5ok_or17h523958a5e05b5b5dE"(i8* %_17)
  br label %bb12

bb12:                                             ; preds = %bb11
; call <core::result::Result<T,E> as core::ops::try_trait::Try>::branch
  %12 = call i8* @"_ZN79_$LT$core..result..Result$LT$T$C$E$GT$$u20$as$u20$core..ops..try_trait..Try$GT$6branch17hf881607b74b6090fE"(i8* %_16)
  store i8* %12, i8** %_15, align 8
  br label %bb13

bb13:                                             ; preds = %bb12
  %13 = bitcast i8** %_15 to {}**
  %14 = load {}*, {}** %13, align 8
  %15 = icmp eq {}* %14, null
  %_20 = select i1 %15, i64 1, i64 0
  switch i64 %_20, label %bb15 [
    i64 0, label %bb14
    i64 1, label %bb16
  ]

bb15:                                             ; preds = %bb13
  unreachable

bb14:                                             ; preds = %bb13
  %val = load i8*, i8** %_15, align 8, !nonnull !2, !noundef !2
; call core::ptr::non_null::NonNull<[T]>::slice_from_raw_parts
  %16 = call { i8*, i64 } @"_ZN4core3ptr8non_null26NonNull$LT$$u5b$T$u5d$$GT$20slice_from_raw_parts17h574cbb92bb2b1fbaE"(i8* %val, i64 %_4)
  %_24.0 = extractvalue { i8*, i64 } %16, 0
  %_24.1 = extractvalue { i8*, i64 } %16, 1
  br label %bb18

bb16:                                             ; preds = %bb13
; call <core::result::Result<T,F> as core::ops::try_trait::FromResidual<core::result::Result<core::convert::Infallible,E>>>::from_residual
  %17 = call { i8*, i64 } @"_ZN153_$LT$core..result..Result$LT$T$C$F$GT$$u20$as$u20$core..ops..try_trait..FromResidual$LT$core..result..Result$LT$core..convert..Infallible$C$E$GT$$GT$$GT$13from_residual17ha05dfab42a7bf4c3E"(%"core::panic::location::Location"* align 8 bitcast (<{ i8*, [16 x i8] }>* @alloc104 to %"core::panic::location::Location"*))
  store { i8*, i64 } %17, { i8*, i64 }* %2, align 8
  br label %bb17

bb17:                                             ; preds = %bb16
  br label %bb20

bb20:                                             ; preds = %bb19, %bb17
  %18 = getelementptr inbounds { i8*, i64 }, { i8*, i64 }* %2, i32 0, i32 0
  %19 = load i8*, i8** %18, align 8
  %20 = getelementptr inbounds { i8*, i64 }, { i8*, i64 }* %2, i32 0, i32 1
  %21 = load i64, i64* %20, align 8
  %22 = insertvalue { i8*, i64 } undef, i8* %19, 0
  %23 = insertvalue { i8*, i64 } %22, i64 %21, 1
  ret { i8*, i64 } %23

bb18:                                             ; preds = %bb14
  %24 = getelementptr inbounds { i8*, i64 }, { i8*, i64 }* %2, i32 0, i32 0
  store i8* %_24.0, i8** %24, align 8
  %25 = getelementptr inbounds { i8*, i64 }, { i8*, i64 }* %2, i32 0, i32 1
  store i64 %_24.1, i64* %25, align 8
  br label %bb19

bb19:                                             ; preds = %bb5, %bb18
  br label %bb20

bb4:                                              ; preds = %bb3
; call core::ptr::non_null::NonNull<[T]>::slice_from_raw_parts
  %26 = call { i8*, i64 } @"_ZN4core3ptr8non_null26NonNull$LT$$u5b$T$u5d$$GT$20slice_from_raw_parts17h574cbb92bb2b1fbaE"(i8* %_7, i64 0)
  %_6.0 = extractvalue { i8*, i64 } %26, 0
  %_6.1 = extractvalue { i8*, i64 } %26, 1
  br label %bb5

bb5:                                              ; preds = %bb4
  %27 = getelementptr inbounds { i8*, i64 }, { i8*, i64 }* %2, i32 0, i32 0
  store i8* %_6.0, i8** %27, align 8
  %28 = getelementptr inbounds { i8*, i64 }, { i8*, i64 }* %2, i32 0, i32 1
  store i64 %_6.1, i64* %28, align 8
  br label %bb19
}

; alloc::alloc::dealloc
; Function Attrs: inlinehint nonlazybind uwtable
define internal void @_ZN5alloc5alloc7dealloc17h2f46794ef6b96bc8E(i8* %ptr, i64 %0, i64 %1) unnamed_addr #0 {
start:
  %layout = alloca { i64, i64 }, align 8
  %2 = getelementptr inbounds { i64, i64 }, { i64, i64 }* %layout, i32 0, i32 0
  store i64 %0, i64* %2, align 8
  %3 = getelementptr inbounds { i64, i64 }, { i64, i64 }* %layout, i32 0, i32 1
  store i64 %1, i64* %3, align 8
; call core::alloc::layout::Layout::size
  %_4 = call i64 @_ZN4core5alloc6layout6Layout4size17h20277de05cbe8c92E({ i64, i64 }* align 8 %layout)
  br label %bb1

bb1:                                              ; preds = %start
; call core::alloc::layout::Layout::align
  %_6 = call i64 @_ZN4core5alloc6layout6Layout5align17hc2565f28d03535bcE({ i64, i64 }* align 8 %layout)
  br label %bb2

bb2:                                              ; preds = %bb1
  call void @__rust_dealloc(i8* %ptr, i64 %_4, i64 %_6) #15
  br label %bb3

bb3:                                              ; preds = %bb2
  ret void
}

; alloc::slice::<impl [T]>::to_vec
; Function Attrs: inlinehint nonlazybind uwtable
define void @"_ZN5alloc5slice29_$LT$impl$u20$$u5b$T$u5d$$GT$6to_vec17hd761d6148aac993bE"(%"alloc::vec::Vec<u8>"* sret(%"alloc::vec::Vec<u8>") %0, [0 x i8]* align 1 %self.0, i64 %self.1) unnamed_addr #0 {
start:
; call alloc::slice::<impl [T]>::to_vec_in
  call void @"_ZN5alloc5slice29_$LT$impl$u20$$u5b$T$u5d$$GT$9to_vec_in17h35e5f421a861ad82E"(%"alloc::vec::Vec<u8>"* sret(%"alloc::vec::Vec<u8>") %0, [0 x i8]* align 1 %self.0, i64 %self.1)
  br label %bb1

bb1:                                              ; preds = %start
  ret void
}

; alloc::slice::<impl [T]>::to_vec_in
; Function Attrs: inlinehint nonlazybind uwtable
define void @"_ZN5alloc5slice29_$LT$impl$u20$$u5b$T$u5d$$GT$9to_vec_in17h35e5f421a861ad82E"(%"alloc::vec::Vec<u8>"* sret(%"alloc::vec::Vec<u8>") %0, [0 x i8]* align 1 %self.0, i64 %self.1) unnamed_addr #0 {
start:
; call alloc::slice::hack::to_vec
  call void @_ZN5alloc5slice4hack6to_vec17h68b2a18ac808e887E(%"alloc::vec::Vec<u8>"* sret(%"alloc::vec::Vec<u8>") %0, [0 x i8]* align 1 %self.0, i64 %self.1)
  br label %bb1

bb1:                                              ; preds = %start
  ret void
}

; alloc::slice::hack::to_vec
; Function Attrs: inlinehint nonlazybind uwtable
define void @_ZN5alloc5slice4hack6to_vec17h68b2a18ac808e887E(%"alloc::vec::Vec<u8>"* sret(%"alloc::vec::Vec<u8>") %0, [0 x i8]* align 1 %s.0, i64 %s.1) unnamed_addr #0 {
start:
; call <T as alloc::slice::hack::ConvertVec>::to_vec
  call void @"_ZN52_$LT$T$u20$as$u20$alloc..slice..hack..ConvertVec$GT$6to_vec17h651a308f59449472E"(%"alloc::vec::Vec<u8>"* sret(%"alloc::vec::Vec<u8>") %0, [0 x i8]* align 1 %s.0, i64 %s.1)
  br label %bb1

bb1:                                              ; preds = %start
  ret void
}

; alloc::slice::<impl alloc::borrow::ToOwned for [T]>::to_owned
; Function Attrs: nonlazybind uwtable
define void @"_ZN5alloc5slice64_$LT$impl$u20$alloc..borrow..ToOwned$u20$for$u20$$u5b$T$u5d$$GT$8to_owned17h1f02d3501df20607E"(%"alloc::vec::Vec<u8>"* sret(%"alloc::vec::Vec<u8>") %0, [0 x i8]* align 1 %self.0, i64 %self.1) unnamed_addr #1 {
start:
; call alloc::slice::<impl [T]>::to_vec
  call void @"_ZN5alloc5slice29_$LT$impl$u20$$u5b$T$u5d$$GT$6to_vec17hd761d6148aac993bE"(%"alloc::vec::Vec<u8>"* sret(%"alloc::vec::Vec<u8>") %0, [0 x i8]* align 1 %self.0, i64 %self.1)
  br label %bb1

bb1:                                              ; preds = %start
  ret void
}

; alloc::string::String::from_utf8_unchecked
; Function Attrs: inlinehint nonlazybind uwtable
define internal void @_ZN5alloc6string6String19from_utf8_unchecked17hcf8c49e0788a41c0E(%"alloc::string::String"* sret(%"alloc::string::String") %0, %"alloc::vec::Vec<u8>"* %bytes) unnamed_addr #0 {
start:
  %_2 = alloca %"alloc::vec::Vec<u8>", align 8
  %1 = bitcast %"alloc::vec::Vec<u8>"* %_2 to i8*
  %2 = bitcast %"alloc::vec::Vec<u8>"* %bytes to i8*
  call void @llvm.memcpy.p0i8.p0i8.i64(i8* align 8 %1, i8* align 8 %2, i64 24, i1 false)
  %3 = bitcast %"alloc::string::String"* %0 to %"alloc::vec::Vec<u8>"*
  %4 = bitcast %"alloc::vec::Vec<u8>"* %3 to i8*
  %5 = bitcast %"alloc::vec::Vec<u8>"* %_2 to i8*
  call void @llvm.memcpy.p0i8.p0i8.i64(i8* align 8 %4, i8* align 8 %5, i64 24, i1 false)
  ret void
}

; alloc::raw_vec::alloc_guard
; Function Attrs: inlinehint nonlazybind uwtable
define internal { i64, i64 } @_ZN5alloc7raw_vec11alloc_guard17hca6087117aa49b9eE(i64 %alloc_size) unnamed_addr #0 {
start:
  %_4 = alloca { i64, i64 }, align 8
  %0 = alloca { i64, i64 }, align 8
  br i1 false, label %bb1, label %bb3

bb3:                                              ; preds = %start
  %1 = getelementptr inbounds { i64, i64 }, { i64, i64 }* %0, i32 0, i32 1
  store i64 -9223372036854775807, i64* %1, align 8
  br label %bb4

bb1:                                              ; preds = %start
  %2 = getelementptr inbounds { i64, i64 }, { i64, i64 }* %_4, i32 0, i32 1
  store i64 0, i64* %2, align 8
  %3 = getelementptr inbounds { i64, i64 }, { i64, i64 }* %_4, i32 0, i32 0
  %4 = load i64, i64* %3, align 8
  %5 = getelementptr inbounds { i64, i64 }, { i64, i64 }* %_4, i32 0, i32 1
  %6 = load i64, i64* %5, align 8, !range !3, !noundef !2
; call <T as core::convert::Into<U>>::into
  %7 = call { i64, i64 } @"_ZN50_$LT$T$u20$as$u20$core..convert..Into$LT$U$GT$$GT$4into17h21f0a095ca780b2cE"(i64 %4, i64 %6)
  %_3.0 = extractvalue { i64, i64 } %7, 0
  %_3.1 = extractvalue { i64, i64 } %7, 1
  br label %bb2

bb2:                                              ; preds = %bb1
  %8 = getelementptr inbounds { i64, i64 }, { i64, i64 }* %0, i32 0, i32 0
  store i64 %_3.0, i64* %8, align 8
  %9 = getelementptr inbounds { i64, i64 }, { i64, i64 }* %0, i32 0, i32 1
  store i64 %_3.1, i64* %9, align 8
  br label %bb4

bb4:                                              ; preds = %bb3, %bb2
  %10 = getelementptr inbounds { i64, i64 }, { i64, i64 }* %0, i32 0, i32 0
  %11 = load i64, i64* %10, align 8
  %12 = getelementptr inbounds { i64, i64 }, { i64, i64 }* %0, i32 0, i32 1
  %13 = load i64, i64* %12, align 8, !range !10, !noundef !2
  %14 = insertvalue { i64, i64 } undef, i64 %11, 0
  %15 = insertvalue { i64, i64 } %14, i64 %13, 1
  ret { i64, i64 } %15
}

; alloc::raw_vec::RawVec<T,A>::allocate_in
; Function Attrs: nonlazybind uwtable
define { i8*, i64 } @"_ZN5alloc7raw_vec19RawVec$LT$T$C$A$GT$11allocate_in17h4e20ba713787b305E"(i64 %capacity, i1 zeroext %0) unnamed_addr #1 personality i32 (i32, i32, i64, %"unwind::libunwind::_Unwind_Exception"*, %"unwind::libunwind::_Unwind_Context"*)* @rust_eh_personality {
start:
  %1 = alloca { i8*, i32 }, align 8
  %_37 = alloca i8, align 1
  %result = alloca { i8*, i64 }, align 8
  %_15 = alloca { i64, i64 }, align 8
  %_10 = alloca { i64, i64 }, align 8
  %layout = alloca { i64, i64 }, align 8
  %_4 = alloca i8, align 1
  %2 = alloca { i8*, i64 }, align 8
  %alloc = alloca %"alloc::alloc::Global", align 1
  %init = alloca i8, align 1
  %3 = zext i1 %0 to i8
  store i8 %3, i8* %init, align 1
  store i8 1, i8* %_37, align 1
  br label %bb4

bb32:                                             ; preds = %cleanup
  %4 = load i8, i8* %_37, align 1, !range !6, !noundef !2
  %5 = trunc i8 %4 to i1
  br i1 %5, label %bb31, label %bb30

cleanup:                                          ; preds = %bb27, %bb26, %bb25, %bb23, %bb19, %bb17, %bb14, %bb12, %bb11, %bb9, %bb7, %bb5
  %6 = landingpad { i8*, i32 }
          cleanup
  %7 = extractvalue { i8*, i32 } %6, 0
  %8 = extractvalue { i8*, i32 } %6, 1
  %9 = getelementptr inbounds { i8*, i32 }, { i8*, i32 }* %1, i32 0, i32 0
  store i8* %7, i8** %9, align 8
  %10 = getelementptr inbounds { i8*, i32 }, { i8*, i32 }* %1, i32 0, i32 1
  store i32 %8, i32* %10, align 8
  br label %bb32

bb4:                                              ; preds = %start
  %11 = icmp eq i64 1, 0
  br i1 %11, label %bb1, label %bb2

bb1:                                              ; preds = %bb4
  store i8 1, i8* %_4, align 1
  br label %bb3

bb2:                                              ; preds = %bb4
  %_6 = icmp eq i64 %capacity, 0
  %12 = zext i1 %_6 to i8
  store i8 %12, i8* %_4, align 1
  br label %bb3

bb3:                                              ; preds = %bb1, %bb2
  %13 = load i8, i8* %_4, align 1, !range !6, !noundef !2
  %14 = trunc i8 %13 to i1
  br i1 %14, label %bb5, label %bb7

bb7:                                              ; preds = %bb3
; invoke core::alloc::layout::Layout::array
  %15 = invoke { i64, i64 } @_ZN4core5alloc6layout6Layout5array17h03782e3a29f55bc7E(i64 %capacity)
          to label %bb8 unwind label %cleanup

bb5:                                              ; preds = %bb3
  store i8 0, i8* %_37, align 1
; invoke alloc::raw_vec::RawVec<T,A>::new_in
  %16 = invoke { i8*, i64 } @"_ZN5alloc7raw_vec19RawVec$LT$T$C$A$GT$6new_in17h237e2bf0032b5f16E"()
          to label %bb6 unwind label %cleanup

bb6:                                              ; preds = %bb5
  store { i8*, i64 } %16, { i8*, i64 }* %2, align 8
  br label %bb29

bb29:                                             ; preds = %bb28, %bb6
  %17 = getelementptr inbounds { i8*, i64 }, { i8*, i64 }* %2, i32 0, i32 0
  %18 = load i8*, i8** %17, align 8, !nonnull !2, !noundef !2
  %19 = getelementptr inbounds { i8*, i64 }, { i8*, i64 }* %2, i32 0, i32 1
  %20 = load i64, i64* %19, align 8
  %21 = insertvalue { i8*, i64 } undef, i8* %18, 0
  %22 = insertvalue { i8*, i64 } %21, i64 %20, 1
  ret { i8*, i64 } %22

bb8:                                              ; preds = %bb7
  store { i64, i64 } %15, { i64, i64 }* %_10, align 8
  %23 = getelementptr inbounds { i64, i64 }, { i64, i64 }* %_10, i32 0, i32 1
  %24 = load i64, i64* %23, align 8, !range !3, !noundef !2
  %25 = icmp eq i64 %24, 0
  %_12 = select i1 %25, i64 1, i64 0
  switch i64 %_12, label %bb10 [
    i64 0, label %bb11
    i64 1, label %bb9
  ]

bb10:                                             ; preds = %bb8
  unreachable

bb11:                                             ; preds = %bb8
  %26 = getelementptr inbounds { i64, i64 }, { i64, i64 }* %_10, i32 0, i32 0
  %layout.0 = load i64, i64* %26, align 8
  %27 = getelementptr inbounds { i64, i64 }, { i64, i64 }* %_10, i32 0, i32 1
  %layout.1 = load i64, i64* %27, align 8, !range !8, !noundef !2
  %28 = getelementptr inbounds { i64, i64 }, { i64, i64 }* %layout, i32 0, i32 0
  store i64 %layout.0, i64* %28, align 8
  %29 = getelementptr inbounds { i64, i64 }, { i64, i64 }* %layout, i32 0, i32 1
  store i64 %layout.1, i64* %29, align 8
; invoke core::alloc::layout::Layout::size
  %_16 = invoke i64 @_ZN4core5alloc6layout6Layout4size17h20277de05cbe8c92E({ i64, i64 }* align 8 %layout)
          to label %bb12 unwind label %cleanup

bb9:                                              ; preds = %bb8
; invoke alloc::raw_vec::capacity_overflow
  invoke void @_ZN5alloc7raw_vec17capacity_overflow17h25b70d340c837942E() #12
          to label %unreachable unwind label %cleanup

unreachable:                                      ; preds = %bb23, %bb14, %bb9
  unreachable

bb12:                                             ; preds = %bb11
; invoke alloc::raw_vec::alloc_guard
  %30 = invoke { i64, i64 } @_ZN5alloc7raw_vec11alloc_guard17hca6087117aa49b9eE(i64 %_16)
          to label %bb13 unwind label %cleanup

bb13:                                             ; preds = %bb12
  store { i64, i64 } %30, { i64, i64 }* %_15, align 8
  %31 = getelementptr inbounds { i64, i64 }, { i64, i64 }* %_15, i32 0, i32 1
  %32 = load i64, i64* %31, align 8, !range !10, !noundef !2
  %33 = sub i64 %32, -9223372036854775807
  %34 = icmp eq i64 %33, 0
  %_18 = select i1 %34, i64 0, i64 1
  switch i64 %_18, label %bb15 [
    i64 0, label %bb16
    i64 1, label %bb14
  ]

bb15:                                             ; preds = %bb13
  unreachable

bb16:                                             ; preds = %bb13
  %35 = load i8, i8* %init, align 1, !range !6, !noundef !2
  %36 = trunc i8 %35 to i1
  %_21 = zext i1 %36 to i64
  switch i64 %_21, label %bb18 [
    i64 0, label %bb19
    i64 1, label %bb17
  ]

bb14:                                             ; preds = %bb13
; invoke alloc::raw_vec::capacity_overflow
  invoke void @_ZN5alloc7raw_vec17capacity_overflow17h25b70d340c837942E() #12
          to label %unreachable unwind label %cleanup

bb18:                                             ; preds = %bb16
  unreachable

bb19:                                             ; preds = %bb16
  %37 = getelementptr inbounds { i64, i64 }, { i64, i64 }* %layout, i32 0, i32 0
  %_23.0 = load i64, i64* %37, align 8
  %38 = getelementptr inbounds { i64, i64 }, { i64, i64 }* %layout, i32 0, i32 1
  %_23.1 = load i64, i64* %38, align 8, !range !8, !noundef !2
; invoke <alloc::alloc::Global as core::alloc::Allocator>::allocate
  %39 = invoke { i8*, i64 } @"_ZN63_$LT$alloc..alloc..Global$u20$as$u20$core..alloc..Allocator$GT$8allocate17had66ad2da2b774c0E"(%"alloc::alloc::Global"* align 1 %alloc, i64 %_23.0, i64 %_23.1)
          to label %bb20 unwind label %cleanup

bb17:                                             ; preds = %bb16
  %40 = getelementptr inbounds { i64, i64 }, { i64, i64 }* %layout, i32 0, i32 0
  %_25.0 = load i64, i64* %40, align 8
  %41 = getelementptr inbounds { i64, i64 }, { i64, i64 }* %layout, i32 0, i32 1
  %_25.1 = load i64, i64* %41, align 8, !range !8, !noundef !2
; invoke <alloc::alloc::Global as core::alloc::Allocator>::allocate_zeroed
  %42 = invoke { i8*, i64 } @"_ZN63_$LT$alloc..alloc..Global$u20$as$u20$core..alloc..Allocator$GT$15allocate_zeroed17h9df3c16fdd734074E"(%"alloc::alloc::Global"* align 1 %alloc, i64 %_25.0, i64 %_25.1)
          to label %bb21 unwind label %cleanup

bb21:                                             ; preds = %bb17
  store { i8*, i64 } %42, { i8*, i64 }* %result, align 8
  br label %bb22

bb22:                                             ; preds = %bb20, %bb21
  %43 = bitcast { i8*, i64 }* %result to {}**
  %44 = load {}*, {}** %43, align 8
  %45 = icmp eq {}* %44, null
  %_27 = select i1 %45, i64 1, i64 0
  switch i64 %_27, label %bb24 [
    i64 0, label %bb25
    i64 1, label %bb23
  ]

bb20:                                             ; preds = %bb19
  store { i8*, i64 } %39, { i8*, i64 }* %result, align 8
  br label %bb22

bb24:                                             ; preds = %bb22
  unreachable

bb25:                                             ; preds = %bb22
  %46 = getelementptr inbounds { i8*, i64 }, { i8*, i64 }* %result, i32 0, i32 0
  %ptr.0 = load i8*, i8** %46, align 8, !nonnull !2, !noundef !2
  %47 = getelementptr inbounds { i8*, i64 }, { i8*, i64 }* %result, i32 0, i32 1
  %ptr.1 = load i64, i64* %47, align 8
; invoke core::ptr::non_null::NonNull<T>::cast
  %_33 = invoke i8* @"_ZN4core3ptr8non_null16NonNull$LT$T$GT$4cast17h63355d0f333364eaE"(i8* %ptr.0, i64 %ptr.1)
          to label %bb26 unwind label %cleanup

bb23:                                             ; preds = %bb22
  %48 = getelementptr inbounds { i64, i64 }, { i64, i64 }* %layout, i32 0, i32 0
  %_30.0 = load i64, i64* %48, align 8
  %49 = getelementptr inbounds { i64, i64 }, { i64, i64 }* %layout, i32 0, i32 1
  %_30.1 = load i64, i64* %49, align 8, !range !8, !noundef !2
; invoke alloc::alloc::handle_alloc_error
  invoke void @_ZN5alloc5alloc18handle_alloc_error17h2234f6f2c34f6820E(i64 %_30.0, i64 %_30.1) #12
          to label %unreachable unwind label %cleanup

bb26:                                             ; preds = %bb25
; invoke core::ptr::non_null::NonNull<T>::as_ptr
  %_32 = invoke i8* @"_ZN4core3ptr8non_null16NonNull$LT$T$GT$6as_ptr17h4f607d5ee52426edE"(i8* %_33)
          to label %bb27 unwind label %cleanup

bb27:                                             ; preds = %bb26
; invoke core::ptr::unique::Unique<T>::new_unchecked
  %_31 = invoke i8* @"_ZN4core3ptr6unique15Unique$LT$T$GT$13new_unchecked17h7fc14b75fe34d068E"(i8* %_32)
          to label %bb28 unwind label %cleanup

bb28:                                             ; preds = %bb27
  %50 = bitcast { i8*, i64 }* %2 to i8**
  store i8* %_31, i8** %50, align 8
  %51 = getelementptr inbounds { i8*, i64 }, { i8*, i64 }* %2, i32 0, i32 1
  store i64 %capacity, i64* %51, align 8
  %52 = bitcast { i8*, i64 }* %2 to %"alloc::alloc::Global"*
  br label %bb29

bb30:                                             ; preds = %bb31, %bb32
  %53 = bitcast { i8*, i32 }* %1 to i8**
  %54 = load i8*, i8** %53, align 8
  %55 = getelementptr inbounds { i8*, i32 }, { i8*, i32 }* %1, i32 0, i32 1
  %56 = load i32, i32* %55, align 8
  %57 = insertvalue { i8*, i32 } undef, i8* %54, 0
  %58 = insertvalue { i8*, i32 } %57, i32 %56, 1
  resume { i8*, i32 } %58

bb31:                                             ; preds = %bb32
  br label %bb30
}

; alloc::raw_vec::RawVec<T,A>::current_memory
; Function Attrs: nonlazybind uwtable
define void @"_ZN5alloc7raw_vec19RawVec$LT$T$C$A$GT$14current_memory17h6905f9abe4b16502E"(%"core::option::Option<(core::ptr::non_null::NonNull<u8>, core::alloc::layout::Layout)>"* sret(%"core::option::Option<(core::ptr::non_null::NonNull<u8>, core::alloc::layout::Layout)>") %0, { i8*, i64 }* align 8 %self) unnamed_addr #1 {
start:
  %_9 = alloca { i8*, { i64, i64 } }, align 8
  %_2 = alloca i8, align 1
  br label %bb4

bb4:                                              ; preds = %start
  %1 = icmp eq i64 1, 0
  br i1 %1, label %bb1, label %bb2

bb1:                                              ; preds = %bb4
  store i8 1, i8* %_2, align 1
  br label %bb3

bb2:                                              ; preds = %bb4
  %2 = getelementptr inbounds { i8*, i64 }, { i8*, i64 }* %self, i32 0, i32 1
  %_5 = load i64, i64* %2, align 8
  %_4 = icmp eq i64 %_5, 0
  %3 = zext i1 %_4 to i8
  store i8 %3, i8* %_2, align 1
  br label %bb3

bb3:                                              ; preds = %bb1, %bb2
  %4 = load i8, i8* %_2, align 1, !range !6, !noundef !2
  %5 = trunc i8 %4 to i1
  br i1 %5, label %bb5, label %bb6

bb6:                                              ; preds = %bb3
  %6 = getelementptr inbounds { i8*, i64 }, { i8*, i64 }* %self, i32 0, i32 1
  %_8 = load i64, i64* %6, align 8
; call core::alloc::layout::Layout::array
  %7 = call { i64, i64 } @_ZN4core5alloc6layout6Layout5array17h03782e3a29f55bc7E(i64 %_8)
  %_7.0 = extractvalue { i64, i64 } %7, 0
  %_7.1 = extractvalue { i64, i64 } %7, 1
  br label %bb7

bb5:                                              ; preds = %bb3
  %8 = getelementptr inbounds %"core::option::Option<(core::ptr::non_null::NonNull<u8>, core::alloc::layout::Layout)>", %"core::option::Option<(core::ptr::non_null::NonNull<u8>, core::alloc::layout::Layout)>"* %0, i32 0, i32 1
  store i64 0, i64* %8, align 8
  br label %bb11

bb11:                                             ; preds = %bb10, %bb5
  ret void

bb7:                                              ; preds = %bb6
; call core::result::Result<T,E>::unwrap_unchecked
  %9 = call { i64, i64 } @"_ZN4core6result19Result$LT$T$C$E$GT$16unwrap_unchecked17hec8a529fb6766745E"(i64 %_7.0, i64 %_7.1, %"core::panic::location::Location"* align 8 bitcast (<{ i8*, [16 x i8] }>* @alloc106 to %"core::panic::location::Location"*))
  %layout.0 = extractvalue { i64, i64 } %9, 0
  %layout.1 = extractvalue { i64, i64 } %9, 1
  br label %bb8

bb8:                                              ; preds = %bb7
  %10 = bitcast { i8*, i64 }* %self to i8**
  %_12 = load i8*, i8** %10, align 8, !nonnull !2, !noundef !2
; call core::ptr::unique::Unique<T>::cast
  %_11 = call i8* @"_ZN4core3ptr6unique15Unique$LT$T$GT$4cast17h76377f1a53739a49E"(i8* %_12)
  br label %bb9

bb9:                                              ; preds = %bb8
; call <T as core::convert::Into<U>>::into
  %_10 = call i8* @"_ZN50_$LT$T$u20$as$u20$core..convert..Into$LT$U$GT$$GT$4into17h825a841bc32687b8E"(i8* %_11)
  br label %bb10

bb10:                                             ; preds = %bb9
  %11 = bitcast { i8*, { i64, i64 } }* %_9 to i8**
  store i8* %_10, i8** %11, align 8
  %12 = getelementptr inbounds { i8*, { i64, i64 } }, { i8*, { i64, i64 } }* %_9, i32 0, i32 1
  %13 = getelementptr inbounds { i64, i64 }, { i64, i64 }* %12, i32 0, i32 0
  store i64 %layout.0, i64* %13, align 8
  %14 = getelementptr inbounds { i64, i64 }, { i64, i64 }* %12, i32 0, i32 1
  store i64 %layout.1, i64* %14, align 8
  %15 = bitcast %"core::option::Option<(core::ptr::non_null::NonNull<u8>, core::alloc::layout::Layout)>"* %0 to %"core::option::Option<(core::ptr::non_null::NonNull<u8>, core::alloc::layout::Layout)>::Some"*
  %16 = bitcast %"core::option::Option<(core::ptr::non_null::NonNull<u8>, core::alloc::layout::Layout)>::Some"* %15 to { i8*, { i64, i64 } }*
  %17 = bitcast { i8*, { i64, i64 } }* %16 to i8*
  %18 = bitcast { i8*, { i64, i64 } }* %_9 to i8*
  call void @llvm.memcpy.p0i8.p0i8.i64(i8* align 8 %17, i8* align 8 %18, i64 24, i1 false)
  br label %bb11
}

; alloc::raw_vec::RawVec<T,A>::with_capacity_in
; Function Attrs: inlinehint nonlazybind uwtable
define { i8*, i64 } @"_ZN5alloc7raw_vec19RawVec$LT$T$C$A$GT$16with_capacity_in17h0232bc7881c8017dE"(i64 %capacity) unnamed_addr #0 {
start:
  %_4 = alloca i8, align 1
  store i8 0, i8* %_4, align 1
  %0 = load i8, i8* %_4, align 1, !range !6, !noundef !2
  %1 = trunc i8 %0 to i1
; call alloc::raw_vec::RawVec<T,A>::allocate_in
  %2 = call { i8*, i64 } @"_ZN5alloc7raw_vec19RawVec$LT$T$C$A$GT$11allocate_in17h4e20ba713787b305E"(i64 %capacity, i1 zeroext %1)
  %3 = extractvalue { i8*, i64 } %2, 0
  %4 = extractvalue { i8*, i64 } %2, 1
  br label %bb1

bb1:                                              ; preds = %start
  %5 = insertvalue { i8*, i64 } undef, i8* %3, 0
  %6 = insertvalue { i8*, i64 } %5, i64 %4, 1
  ret { i8*, i64 } %6
}

; alloc::raw_vec::RawVec<T,A>::ptr
; Function Attrs: inlinehint nonlazybind uwtable
define i8* @"_ZN5alloc7raw_vec19RawVec$LT$T$C$A$GT$3ptr17hbdfc86a5334973dcE"({ i8*, i64 }* align 8 %self) unnamed_addr #0 {
start:
  %0 = bitcast { i8*, i64 }* %self to i8**
  %_2 = load i8*, i8** %0, align 8, !nonnull !2, !noundef !2
; call core::ptr::unique::Unique<T>::as_ptr
  %1 = call i8* @"_ZN4core3ptr6unique15Unique$LT$T$GT$6as_ptr17h17756bcc08056fbdE"(i8* %_2)
  br label %bb1

bb1:                                              ; preds = %start
  ret i8* %1
}

; alloc::raw_vec::RawVec<T,A>::new_in
; Function Attrs: nonlazybind uwtable
define { i8*, i64 } @"_ZN5alloc7raw_vec19RawVec$LT$T$C$A$GT$6new_in17h237e2bf0032b5f16E"() unnamed_addr #1 personality i32 (i32, i32, i64, %"unwind::libunwind::_Unwind_Exception"*, %"unwind::libunwind::_Unwind_Context"*)* @rust_eh_personality {
start:
  %0 = alloca { i8*, i32 }, align 8
  %1 = alloca { i8*, i64 }, align 8
; invoke core::ptr::unique::Unique<T>::dangling
  %_2 = invoke i8* @"_ZN4core3ptr6unique15Unique$LT$T$GT$8dangling17h16310859fb654b31E"()
          to label %bb1 unwind label %cleanup

bb2:                                              ; preds = %cleanup
  br label %bb3

cleanup:                                          ; preds = %start
  %2 = landingpad { i8*, i32 }
          cleanup
  %3 = extractvalue { i8*, i32 } %2, 0
  %4 = extractvalue { i8*, i32 } %2, 1
  %5 = getelementptr inbounds { i8*, i32 }, { i8*, i32 }* %0, i32 0, i32 0
  store i8* %3, i8** %5, align 8
  %6 = getelementptr inbounds { i8*, i32 }, { i8*, i32 }* %0, i32 0, i32 1
  store i32 %4, i32* %6, align 8
  br label %bb2

bb1:                                              ; preds = %start
  %7 = bitcast { i8*, i64 }* %1 to i8**
  store i8* %_2, i8** %7, align 8
  %8 = getelementptr inbounds { i8*, i64 }, { i8*, i64 }* %1, i32 0, i32 1
  store i64 0, i64* %8, align 8
  %9 = bitcast { i8*, i64 }* %1 to %"alloc::alloc::Global"*
  %10 = getelementptr inbounds { i8*, i64 }, { i8*, i64 }* %1, i32 0, i32 0
  %11 = load i8*, i8** %10, align 8, !nonnull !2, !noundef !2
  %12 = getelementptr inbounds { i8*, i64 }, { i8*, i64 }* %1, i32 0, i32 1
  %13 = load i64, i64* %12, align 8
  %14 = insertvalue { i8*, i64 } undef, i8* %11, 0
  %15 = insertvalue { i8*, i64 } %14, i64 %13, 1
  ret { i8*, i64 } %15

bb3:                                              ; preds = %bb2
  %16 = bitcast { i8*, i32 }* %0 to i8**
  %17 = load i8*, i8** %16, align 8
  %18 = getelementptr inbounds { i8*, i32 }, { i8*, i32 }* %0, i32 0, i32 1
  %19 = load i32, i32* %18, align 8
  %20 = insertvalue { i8*, i32 } undef, i8* %17, 0
  %21 = insertvalue { i8*, i32 } %20, i32 %19, 1
  resume { i8*, i32 } %21
}

; <alloc::alloc::Global as core::alloc::Allocator>::deallocate
; Function Attrs: inlinehint nonlazybind uwtable
define internal void @"_ZN63_$LT$alloc..alloc..Global$u20$as$u20$core..alloc..Allocator$GT$10deallocate17h1229a2e802917f72E"(%"alloc::alloc::Global"* align 1 %self, i8* %ptr, i64 %0, i64 %1) unnamed_addr #0 {
start:
  %layout = alloca { i64, i64 }, align 8
  %2 = getelementptr inbounds { i64, i64 }, { i64, i64 }* %layout, i32 0, i32 0
  store i64 %0, i64* %2, align 8
  %3 = getelementptr inbounds { i64, i64 }, { i64, i64 }* %layout, i32 0, i32 1
  store i64 %1, i64* %3, align 8
; call core::alloc::layout::Layout::size
  %_4 = call i64 @_ZN4core5alloc6layout6Layout4size17h20277de05cbe8c92E({ i64, i64 }* align 8 %layout)
  br label %bb1

bb1:                                              ; preds = %start
  %4 = icmp eq i64 %_4, 0
  br i1 %4, label %bb5, label %bb2

bb5:                                              ; preds = %bb1
  br label %bb6

bb2:                                              ; preds = %bb1
; call core::ptr::non_null::NonNull<T>::as_ptr
  %_6 = call i8* @"_ZN4core3ptr8non_null16NonNull$LT$T$GT$6as_ptr17h4f607d5ee52426edE"(i8* %ptr)
  br label %bb3

bb3:                                              ; preds = %bb2
  %5 = getelementptr inbounds { i64, i64 }, { i64, i64 }* %layout, i32 0, i32 0
  %_8.0 = load i64, i64* %5, align 8
  %6 = getelementptr inbounds { i64, i64 }, { i64, i64 }* %layout, i32 0, i32 1
  %_8.1 = load i64, i64* %6, align 8, !range !8, !noundef !2
; call alloc::alloc::dealloc
  call void @_ZN5alloc5alloc7dealloc17h2f46794ef6b96bc8E(i8* %_6, i64 %_8.0, i64 %_8.1)
  br label %bb4

bb4:                                              ; preds = %bb3
  br label %bb6

bb6:                                              ; preds = %bb5, %bb4
  ret void
}

; <alloc::alloc::Global as core::alloc::Allocator>::allocate_zeroed
; Function Attrs: inlinehint nonlazybind uwtable
define internal { i8*, i64 } @"_ZN63_$LT$alloc..alloc..Global$u20$as$u20$core..alloc..Allocator$GT$15allocate_zeroed17h9df3c16fdd734074E"(%"alloc::alloc::Global"* align 1 %self, i64 %layout.0, i64 %layout.1) unnamed_addr #0 {
start:
; call alloc::alloc::Global::alloc_impl
  %0 = call { i8*, i64 } @_ZN5alloc5alloc6Global10alloc_impl17hd0baf1bd0d750b50E(%"alloc::alloc::Global"* align 1 %self, i64 %layout.0, i64 %layout.1, i1 zeroext true)
  %1 = extractvalue { i8*, i64 } %0, 0
  %2 = extractvalue { i8*, i64 } %0, 1
  br label %bb1

bb1:                                              ; preds = %start
  %3 = insertvalue { i8*, i64 } undef, i8* %1, 0
  %4 = insertvalue { i8*, i64 } %3, i64 %2, 1
  ret { i8*, i64 } %4
}

; <alloc::alloc::Global as core::alloc::Allocator>::allocate
; Function Attrs: inlinehint nonlazybind uwtable
define internal { i8*, i64 } @"_ZN63_$LT$alloc..alloc..Global$u20$as$u20$core..alloc..Allocator$GT$8allocate17had66ad2da2b774c0E"(%"alloc::alloc::Global"* align 1 %self, i64 %layout.0, i64 %layout.1) unnamed_addr #0 {
start:
; call alloc::alloc::Global::alloc_impl
  %0 = call { i8*, i64 } @_ZN5alloc5alloc6Global10alloc_impl17hd0baf1bd0d750b50E(%"alloc::alloc::Global"* align 1 %self, i64 %layout.0, i64 %layout.1, i1 zeroext false)
  %1 = extractvalue { i8*, i64 } %0, 0
  %2 = extractvalue { i8*, i64 } %0, 1
  br label %bb1

bb1:                                              ; preds = %start
  %3 = insertvalue { i8*, i64 } undef, i8* %1, 0
  %4 = insertvalue { i8*, i64 } %3, i64 %2, 1
  ret { i8*, i64 } %4
}

; <alloc::vec::Vec<T,A> as core::ops::drop::Drop>::drop
; Function Attrs: nonlazybind uwtable
define void @"_ZN70_$LT$alloc..vec..Vec$LT$T$C$A$GT$$u20$as$u20$core..ops..drop..Drop$GT$4drop17h2a71f8e896f66c2aE"(%"alloc::vec::Vec<u8>"* align 8 %self) unnamed_addr #1 {
start:
; call alloc::vec::Vec<T,A>::as_mut_ptr
  %_3 = call i8* @"_ZN5alloc3vec16Vec$LT$T$C$A$GT$10as_mut_ptr17h360fb26c6b98e1e2E"(%"alloc::vec::Vec<u8>"* align 8 %self)
  br label %bb1

bb1:                                              ; preds = %start
  %0 = getelementptr inbounds %"alloc::vec::Vec<u8>", %"alloc::vec::Vec<u8>"* %self, i32 0, i32 1
  %_5 = load i64, i64* %0, align 8
; call core::ptr::slice_from_raw_parts_mut
  %1 = call { [0 x i8]*, i64 } @_ZN4core3ptr24slice_from_raw_parts_mut17h0baf4609085c1abeE(i8* %_3, i64 %_5)
  %_2.0 = extractvalue { [0 x i8]*, i64 } %1, 0
  %_2.1 = extractvalue { [0 x i8]*, i64 } %1, 1
  br label %bb2

bb2:                                              ; preds = %bb1
  br label %bb3

bb3:                                              ; preds = %bb2
  ret void
}

; <alloc::raw_vec::RawVec<T,A> as core::ops::drop::Drop>::drop
; Function Attrs: nonlazybind uwtable
define void @"_ZN77_$LT$alloc..raw_vec..RawVec$LT$T$C$A$GT$$u20$as$u20$core..ops..drop..Drop$GT$4drop17h14ac46611a604b9dE"({ i8*, i64 }* align 8 %self) unnamed_addr #1 {
start:
  %_2 = alloca %"core::option::Option<(core::ptr::non_null::NonNull<u8>, core::alloc::layout::Layout)>", align 8
; call alloc::raw_vec::RawVec<T,A>::current_memory
  call void @"_ZN5alloc7raw_vec19RawVec$LT$T$C$A$GT$14current_memory17h6905f9abe4b16502E"(%"core::option::Option<(core::ptr::non_null::NonNull<u8>, core::alloc::layout::Layout)>"* sret(%"core::option::Option<(core::ptr::non_null::NonNull<u8>, core::alloc::layout::Layout)>") %_2, { i8*, i64 }* align 8 %self)
  br label %bb1

bb1:                                              ; preds = %start
  %0 = getelementptr inbounds %"core::option::Option<(core::ptr::non_null::NonNull<u8>, core::alloc::layout::Layout)>", %"core::option::Option<(core::ptr::non_null::NonNull<u8>, core::alloc::layout::Layout)>"* %_2, i32 0, i32 1
  %1 = load i64, i64* %0, align 8, !range !3, !noundef !2
  %2 = icmp eq i64 %1, 0
  %_4 = select i1 %2, i64 0, i64 1
  %3 = icmp eq i64 %_4, 1
  br i1 %3, label %bb2, label %bb4

bb2:                                              ; preds = %bb1
  %4 = bitcast %"core::option::Option<(core::ptr::non_null::NonNull<u8>, core::alloc::layout::Layout)>"* %_2 to %"core::option::Option<(core::ptr::non_null::NonNull<u8>, core::alloc::layout::Layout)>::Some"*
  %5 = bitcast %"core::option::Option<(core::ptr::non_null::NonNull<u8>, core::alloc::layout::Layout)>::Some"* %4 to { i8*, { i64, i64 } }*
  %6 = bitcast { i8*, { i64, i64 } }* %5 to i8**
  %ptr = load i8*, i8** %6, align 8, !nonnull !2, !noundef !2
  %7 = bitcast %"core::option::Option<(core::ptr::non_null::NonNull<u8>, core::alloc::layout::Layout)>"* %_2 to %"core::option::Option<(core::ptr::non_null::NonNull<u8>, core::alloc::layout::Layout)>::Some"*
  %8 = bitcast %"core::option::Option<(core::ptr::non_null::NonNull<u8>, core::alloc::layout::Layout)>::Some"* %7 to { i8*, { i64, i64 } }*
  %9 = getelementptr inbounds { i8*, { i64, i64 } }, { i8*, { i64, i64 } }* %8, i32 0, i32 1
  %10 = getelementptr inbounds { i64, i64 }, { i64, i64 }* %9, i32 0, i32 0
  %layout.0 = load i64, i64* %10, align 8
  %11 = getelementptr inbounds { i64, i64 }, { i64, i64 }* %9, i32 0, i32 1
  %layout.1 = load i64, i64* %11, align 8, !range !8, !noundef !2
  %_7 = bitcast { i8*, i64 }* %self to %"alloc::alloc::Global"*
; call <alloc::alloc::Global as core::alloc::Allocator>::deallocate
  call void @"_ZN63_$LT$alloc..alloc..Global$u20$as$u20$core..alloc..Allocator$GT$10deallocate17h1229a2e802917f72E"(%"alloc::alloc::Global"* align 1 %_7, i8* %ptr, i64 %layout.0, i64 %layout.1)
  br label %bb3

bb4:                                              ; preds = %bb3, %bb1
  ret void

bb3:                                              ; preds = %bb2
  br label %bb4
}

; <core::result::Result<T,E> as core::ops::try_trait::Try>::branch
; Function Attrs: inlinehint nonlazybind uwtable
define { i64, i64 } @"_ZN79_$LT$core..result..Result$LT$T$C$E$GT$$u20$as$u20$core..ops..try_trait..Try$GT$6branch17hc82a798a46eefe51E"(i64 %0, i64 %1) unnamed_addr #0 {
start:
  %_6 = alloca %"core::result::Result<core::convert::Infallible, core::alloc::layout::LayoutError>::Err", align 1
  %2 = alloca { i64, i64 }, align 8
  %self = alloca { i64, i64 }, align 8
  %3 = getelementptr inbounds { i64, i64 }, { i64, i64 }* %self, i32 0, i32 0
  store i64 %0, i64* %3, align 8
  %4 = getelementptr inbounds { i64, i64 }, { i64, i64 }* %self, i32 0, i32 1
  store i64 %1, i64* %4, align 8
  %5 = bitcast { i64, i64 }* %self to i64*
  %_2 = load i64, i64* %5, align 8, !range !9, !noundef !2
  switch i64 %_2, label %bb2 [
    i64 0, label %bb3
    i64 1, label %bb1
  ]

bb2:                                              ; preds = %start
  unreachable

bb3:                                              ; preds = %start
  %6 = getelementptr inbounds { i64, i64 }, { i64, i64 }* %self, i32 0, i32 1
  %v = load i64, i64* %6, align 8
  %7 = getelementptr inbounds { i64, i64 }, { i64, i64 }* %2, i32 0, i32 1
  store i64 %v, i64* %7, align 8
  %8 = bitcast { i64, i64 }* %2 to i64*
  store i64 0, i64* %8, align 8
  br label %bb4

bb1:                                              ; preds = %start
  %9 = bitcast %"core::result::Result<core::convert::Infallible, core::alloc::layout::LayoutError>::Err"* %_6 to %"core::alloc::layout::LayoutError"*
  %10 = getelementptr inbounds { i64, i64 }, { i64, i64 }* %2, i32 0, i32 1
  %11 = bitcast i64* %10 to %"core::result::Result<core::convert::Infallible, core::alloc::layout::LayoutError>::Err"*
  %12 = bitcast { i64, i64 }* %2 to i64*
  store i64 1, i64* %12, align 8
  br label %bb4

bb4:                                              ; preds = %bb3, %bb1
  %13 = getelementptr inbounds { i64, i64 }, { i64, i64 }* %2, i32 0, i32 0
  %14 = load i64, i64* %13, align 8, !range !9, !noundef !2
  %15 = getelementptr inbounds { i64, i64 }, { i64, i64 }* %2, i32 0, i32 1
  %16 = load i64, i64* %15, align 8
  %17 = insertvalue { i64, i64 } undef, i64 %14, 0
  %18 = insertvalue { i64, i64 } %17, i64 %16, 1
  ret { i64, i64 } %18
}

; <core::result::Result<T,E> as core::ops::try_trait::Try>::branch
; Function Attrs: inlinehint nonlazybind uwtable
define i8* @"_ZN79_$LT$core..result..Result$LT$T$C$E$GT$$u20$as$u20$core..ops..try_trait..Try$GT$6branch17hf881607b74b6090fE"(i8* %0) unnamed_addr #0 {
start:
  %_6 = alloca %"core::result::Result<core::convert::Infallible, core::alloc::AllocError>::Err", align 1
  %1 = alloca i8*, align 8
  %self = alloca i8*, align 8
  store i8* %0, i8** %self, align 8
  %2 = bitcast i8** %self to {}**
  %3 = load {}*, {}** %2, align 8
  %4 = icmp eq {}* %3, null
  %_2 = select i1 %4, i64 1, i64 0
  switch i64 %_2, label %bb2 [
    i64 0, label %bb3
    i64 1, label %bb1
  ]

bb2:                                              ; preds = %start
  unreachable

bb3:                                              ; preds = %start
  %v = load i8*, i8** %self, align 8, !nonnull !2, !noundef !2
  store i8* %v, i8** %1, align 8
  br label %bb4

bb1:                                              ; preds = %start
  %5 = bitcast %"core::result::Result<core::convert::Infallible, core::alloc::AllocError>::Err"* %_6 to %"core::alloc::AllocError"*
  %6 = bitcast i8** %1 to %"core::ops::control_flow::ControlFlow<core::result::Result<core::convert::Infallible, core::alloc::AllocError>, core::ptr::non_null::NonNull<u8>>::Break"*
  %7 = bitcast %"core::ops::control_flow::ControlFlow<core::result::Result<core::convert::Infallible, core::alloc::AllocError>, core::ptr::non_null::NonNull<u8>>::Break"* %6 to %"core::result::Result<core::convert::Infallible, core::alloc::AllocError>::Err"*
  %8 = bitcast i8** %1 to {}**
  store {}* null, {}** %8, align 8
  br label %bb4

bb4:                                              ; preds = %bb3, %bb1
  %9 = load i8*, i8** %1, align 8
  ret i8* %9
}

; probe1::probe
; Function Attrs: nonlazybind uwtable
define void @_ZN6probe15probe17he098e2c9f54edf27E() unnamed_addr #1 {
start:
  %_10 = alloca [1 x { i8*, i64* }], align 8
  %_3 = alloca %"core::fmt::Arguments", align 8
  %res = alloca %"alloc::string::String", align 8
  %_1 = alloca %"alloc::string::String", align 8
; call core::fmt::ArgumentV1::new_lower_exp
  %0 = call { i8*, i64* } @_ZN4core3fmt10ArgumentV113new_lower_exp17hea57e69853a6744aE(i64* align 8 bitcast (<{ [8 x i8] }>* @alloc6 to i64*))
  %_11.0 = extractvalue { i8*, i64* } %0, 0
  %_11.1 = extractvalue { i8*, i64* } %0, 1
  br label %bb1

bb1:                                              ; preds = %start
  %1 = bitcast [1 x { i8*, i64* }]* %_10 to { i8*, i64* }*
  %2 = getelementptr inbounds { i8*, i64* }, { i8*, i64* }* %1, i32 0, i32 0
  store i8* %_11.0, i8** %2, align 8
  %3 = getelementptr inbounds { i8*, i64* }, { i8*, i64* }* %1, i32 0, i32 1
  store i64* %_11.1, i64** %3, align 8
  %_7.0 = bitcast [1 x { i8*, i64* }]* %_10 to [0 x { i8*, i64* }]*
; call core::fmt::Arguments::new_v1
  call void @_ZN4core3fmt9Arguments6new_v117hd1601d1fda8bde9eE(%"core::fmt::Arguments"* sret(%"core::fmt::Arguments") %_3, [0 x { [0 x i8]*, i64 }]* align 8 bitcast (<{ i8*, [8 x i8] }>* @alloc4 to [0 x { [0 x i8]*, i64 }]*), i64 1, [0 x { i8*, i64* }]* align 8 %_7.0, i64 1)
  br label %bb2

bb2:                                              ; preds = %bb1
; call alloc::fmt::format
  call void @_ZN5alloc3fmt6format17hf9265331cafdf3a3E(%"alloc::string::String"* sret(%"alloc::string::String") %res, %"core::fmt::Arguments"* %_3)
  br label %bb3

bb3:                                              ; preds = %bb2
  %4 = bitcast %"alloc::string::String"* %_1 to i8*
  %5 = bitcast %"alloc::string::String"* %res to i8*
  call void @llvm.memcpy.p0i8.p0i8.i64(i8* align 8 %4, i8* align 8 %5, i64 24, i1 false)
; call core::ptr::drop_in_place<alloc::string::String>
  call void @"_ZN4core3ptr42drop_in_place$LT$alloc..string..String$GT$17hd692907dc64ba825E"(%"alloc::string::String"* %_1)
  br label %bb4

bb4:                                              ; preds = %bb3
  ret void
}

; Function Attrs: argmemonly nofree nounwind willreturn
declare void @llvm.memcpy.p0i8.p0i8.i64(i8* noalias nocapture writeonly, i8* noalias nocapture readonly, i64, i1 immarg) #3

; core::fmt::num::imp::<impl core::fmt::LowerExp for isize>::fmt
; Function Attrs: nonlazybind uwtable
declare zeroext i1 @"_ZN4core3fmt3num3imp55_$LT$impl$u20$core..fmt..LowerExp$u20$for$u20$isize$GT$3fmt17h0e21502f1d8f0b72E"(i64* align 8, %"core::fmt::Formatter"* align 8) unnamed_addr #1

; core::panicking::panic_fmt
; Function Attrs: cold noinline noreturn nonlazybind uwtable
declare void @_ZN4core9panicking9panic_fmt17h1de71520faaa17d3E(%"core::fmt::Arguments"*, %"core::panic::location::Location"* align 8) unnamed_addr #4

; Function Attrs: inaccessiblememonly nofree nosync nounwind willreturn
declare void @llvm.assume(i1 noundef) #5

; Function Attrs: nofree nosync nounwind readnone willreturn
declare i1 @llvm.expect.i1(i1, i1) #6

; Function Attrs: nofree nosync nounwind readnone speculatable willreturn
declare { i64, i1 } @llvm.umul.with.overflow.i64(i64, i64) #7

; Function Attrs: nonlazybind uwtable
declare i32 @rust_eh_personality(i32, i32, i64, %"unwind::libunwind::_Unwind_Exception"*, %"unwind::libunwind::_Unwind_Context"*) unnamed_addr #1

; core::panicking::panic_no_unwind
; Function Attrs: cold noinline noreturn nounwind nonlazybind uwtable
declare void @_ZN4core9panicking15panic_no_unwind17hd9b8f600c78bc0e5E() unnamed_addr #8

; alloc::fmt::format::format_inner
; Function Attrs: nonlazybind uwtable
declare void @_ZN5alloc3fmt6format12format_inner17h3fdf7b01996f555cE(%"alloc::string::String"* sret(%"alloc::string::String"), %"core::fmt::Arguments"*) unnamed_addr #1

; Function Attrs: nounwind nonlazybind uwtable
declare i8* @__rust_alloc_zeroed(i64, i64) unnamed_addr #9

; Function Attrs: nounwind nonlazybind uwtable
declare noalias i8* @__rust_alloc(i64, i64) unnamed_addr #9

; Function Attrs: nounwind nonlazybind uwtable
declare void @__rust_dealloc(i8*, i64, i64) unnamed_addr #9

; alloc::raw_vec::capacity_overflow
; Function Attrs: noreturn nonlazybind uwtable
declare void @_ZN5alloc7raw_vec17capacity_overflow17h25b70d340c837942E() unnamed_addr #10

; alloc::alloc::handle_alloc_error
; Function Attrs: cold noreturn nonlazybind uwtable
declare void @_ZN5alloc5alloc18handle_alloc_error17h2234f6f2c34f6820E(i64, i64) unnamed_addr #11

attributes #0 = { inlinehint nonlazybind uwtable "probe-stack"="__rust_probestack" "target-cpu"="x86-64" }
attributes #1 = { nonlazybind uwtable "probe-stack"="__rust_probestack" "target-cpu"="x86-64" }
attributes #2 = { inlinehint noreturn nonlazybind uwtable "probe-stack"="__rust_probestack" "target-cpu"="x86-64" }
attributes #3 = { argmemonly nofree nounwind willreturn }
attributes #4 = { cold noinline noreturn nonlazybind uwtable "probe-stack"="__rust_probestack" "target-cpu"="x86-64" }
attributes #5 = { inaccessiblememonly nofree nosync nounwind willreturn }
attributes #6 = { nofree nosync nounwind readnone willreturn }
attributes #7 = { nofree nosync nounwind readnone speculatable willreturn }
attributes #8 = { cold noinline noreturn nounwind nonlazybind uwtable "probe-stack"="__rust_probestack" "target-cpu"="x86-64" }
attributes #9 = { nounwind nonlazybind uwtable "probe-stack"="__rust_probestack" "target-cpu"="x86-64" }
attributes #10 = { noreturn nonlazybind uwtable "probe-stack"="__rust_probestack" "target-cpu"="x86-64" }
attributes #11 = { cold noreturn nonlazybind uwtable "probe-stack"="__rust_probestack" "target-cpu"="x86-64" }
attributes #12 = { noreturn }
attributes #13 = { noinline }
attributes #14 = { noinline noreturn nounwind }
attributes #15 = { nounwind }

!llvm.module.flags = !{!0, !1}

!0 = !{i32 7, !"PIC Level", i32 2}
!1 = !{i32 2, !"RtLibUseGOT", i32 1}
!2 = !{}
!3 = !{i64 0, i64 -9223372036854775807}
!4 = !{i64 1}
!5 = !{i64 8}
!6 = !{i8 0, i8 2}
!7 = !{i64 1, i64 0}
!8 = !{i64 1, i64 -9223372036854775807}
!9 = !{i64 0, i64 2}
!10 = !{i64 0, i64 -9223372036854775806}
